                              1 ;--------------------------------------------------------
                              2 ; File Created by SDCC : FreeWare ANSI-C Compiler
                              3 ; Version 2.2.1 Sat Aug 19 14:05:43 2023
                              4 
                              5 ;--------------------------------------------------------
                              6 	.module lcc142600
                              7 	
                              8 ;--------------------------------------------------------
                              9 ; Public variables in this module
                             10 ;--------------------------------------------------------
                             11 	.globl _main
                             12 	.globl _PlayerMove
                             13 	.globl _AIMove
                             14 	.globl _score
                             15 	.globl _initSprites
                             16 	.globl _updateSpritePositions
                             17 	.globl _rand
                             18 	.globl _move_sprite
                             19 	.globl _set_sprite_tile
                             20 	.globl _set_sprite_data
                             21 	.globl _joypad
                             22 	.globl _delay
                             23 	.globl _DownPressed
                             24 	.globl _UpPressed
                             25 	.globl _running
                             26 	.globl _DistinceFromWall
                             27 	.globl _PaddleByvel
                             28 	.globl _PaddleBypos
                             29 	.globl _PaddleAyvel
                             30 	.globl _PaddleAypos
                             31 	.globl _Ballyvel
                             32 	.globl _Ballxvel
                             33 	.globl _Ballypos
                             34 	.globl _Ballxpos
                             35 	.globl _Paddle
                             36 	.globl _Ball
                             37 	.globl _main
                             38 	.globl _PlayerMove
                             39 	.globl _AIMove
                             40 	.globl _score
                             41 	.globl _initSprites
                             42 	.globl _yoff
                             43 	.globl _xoff
                             44 	.globl _height
                             45 	.globl _width
                             46 	.globl __paddleTileIndex
                             47 	.globl __paddleTileCount
                             48 	.globl __ballTileIndex
                             49 	.globl __ballTileCount
                             50 	.globl _updateSpritePositions
                             51 ;--------------------------------------------------------
                             52 ; Externals used
                             53 ;--------------------------------------------------------
                             54 	.globl _IE_REG
                             55 	.globl _SVBK_REG
                             56 	.globl _OCPD_REG
                             57 	.globl _OCPS_REG
                             58 	.globl _BCPD_REG
                             59 	.globl _BCPS_REG
                             60 	.globl _RP_REG
                             61 	.globl _HDMA5_REG
                             62 	.globl _HDMA4_REG
                             63 	.globl _HDMA3_REG
                             64 	.globl _HDMA2_REG
                             65 	.globl _HDMA1_REG
                             66 	.globl _VBK_REG
                             67 	.globl _KEY1_REG
                             68 	.globl _WX_REG
                             69 	.globl _WY_REG
                             70 	.globl _OBP1_REG
                             71 	.globl _OBP0_REG
                             72 	.globl _BGP_REG
                             73 	.globl _DMA_REG
                             74 	.globl _LYC_REG
                             75 	.globl _LY_REG
                             76 	.globl _SCX_REG
                             77 	.globl _SCY_REG
                             78 	.globl _STAT_REG
                             79 	.globl _LCDC_REG
                             80 	.globl _NR52_REG
                             81 	.globl _NR51_REG
                             82 	.globl _NR50_REG
                             83 	.globl _NR44_REG
                             84 	.globl _NR43_REG
                             85 	.globl _NR42_REG
                             86 	.globl _NR41_REG
                             87 	.globl _NR34_REG
                             88 	.globl _NR33_REG
                             89 	.globl _NR32_REG
                             90 	.globl _NR31_REG
                             91 	.globl _NR30_REG
                             92 	.globl _NR24_REG
                             93 	.globl _NR23_REG
                             94 	.globl _NR22_REG
                             95 	.globl _NR21_REG
                             96 	.globl _NR14_REG
                             97 	.globl _NR13_REG
                             98 	.globl _NR12_REG
                             99 	.globl _NR11_REG
                            100 	.globl _NR10_REG
                            101 	.globl _IF_REG
                            102 	.globl _TAC_REG
                            103 	.globl _TMA_REG
                            104 	.globl _TIMA_REG
                            105 	.globl _DIV_REG
                            106 	.globl _SC_REG
                            107 	.globl _SB_REG
                            108 	.globl _P1_REG
                            109 	.globl __io_out
                            110 	.globl __io_in
                            111 	.globl __io_status
                            112 	.globl _sys_time
                            113 	.globl __cpu
                            114 ;--------------------------------------------------------
                            115 ; special function registers
                            116 ;--------------------------------------------------------
                            117 ;--------------------------------------------------------
                            118 ; special function bits 
                            119 ;--------------------------------------------------------
                            120 ;--------------------------------------------------------
                            121 ; internal ram data
                            122 ;--------------------------------------------------------
                            123 	.area _DATA
   0000                     124 _Ball::
   0000                     125 	.ds 16
   0010                     126 _Paddle::
   0010                     127 	.ds 16
   0020                     128 _Ballxpos::
   0020                     129 	.ds 2
   0022                     130 _Ballypos::
   0022                     131 	.ds 2
   0024                     132 _PrevBallx::
   0024                     133 	.ds 2
   0026                     134 _PrevBally::
   0026                     135 	.ds 2
   0028                     136 _Ballxvel::
   0028                     137 	.ds 1
   0029                     138 _Ballyvel::
   0029                     139 	.ds 1
   002A                     140 _PaddleAypos::
   002A                     141 	.ds 2
   002C                     142 _PaddleAyvel::
   002C                     143 	.ds 1
   002D                     144 _PaddleBypos::
   002D                     145 	.ds 2
   002F                     146 _PaddleByvel::
   002F                     147 	.ds 1
   0030                     148 _DistinceFromWall::
   0030                     149 	.ds 1
   0031                     150 _running::
   0031                     151 	.ds 1
   0032                     152 _UpPressed::
   0032                     153 	.ds 1
   0033                     154 _DownPressed::
   0033                     155 	.ds 1
                            156 ;--------------------------------------------------------
                            157 ; overlayable items in internal ram 
                            158 ;--------------------------------------------------------
                            159 	.area _OVERLAY
                            160 ;--------------------------------------------------------
                            161 ; indirectly addressable internal ram data
                            162 ;--------------------------------------------------------
                            163 	.area _ISEG
                            164 ;--------------------------------------------------------
                            165 ; bit data
                            166 ;--------------------------------------------------------
                            167 	.area _BSEG
                            168 ;--------------------------------------------------------
                            169 ; external ram data
                            170 ;--------------------------------------------------------
                            171 	.area _XSEG
                            172 ;--------------------------------------------------------
                            173 ; global & static initialisations
                            174 ;--------------------------------------------------------
                            175 	.area _GSINIT
                            176 	.area _GSFINAL
                            177 	.area _GSINIT
                            178 ;	main.c 217
                            179 ; genAssign (pointer)
   0000 11 00 00            180 	ld	de,#_Ball + 0
   0003 3E 7E               181 	ld	a,#0x7E
   0005 12                  182 	ld	(de),a
                            183 ; genPlus
                            184 ; genPlusIncr
   0006 11 01 00            185 	ld	de,#_Ball + 0 + 1
                            186 ; genAssign (pointer)
   0009 3E 7E               187 	ld	a,#0x7E
   000B 12                  188 	ld	(de),a
                            189 ; genPlus
                            190 ; genPlusIncr
   000C 11 02 00            191 	ld	de,#_Ball + 0 + 2
                            192 ; genAssign (pointer)
   000F 3E C3               193 	ld	a,#0xC3
   0011 12                  194 	ld	(de),a
                            195 ; genPlus
                            196 ; genPlusIncr
   0012 11 03 00            197 	ld	de,#_Ball + 0 + 3
                            198 ; genAssign (pointer)
   0015 3E FF               199 	ld	a,#0xFF
   0017 12                  200 	ld	(de),a
                            201 ; genPlus
                            202 ; genPlusIncr
   0018 11 04 00            203 	ld	de,#_Ball + 0 + 4
                            204 ; genAssign (pointer)
   001B 3E 99               205 	ld	a,#0x99
   001D 12                  206 	ld	(de),a
                            207 ; genPlus
                            208 ; genPlusIncr
   001E 11 05 00            209 	ld	de,#_Ball + 0 + 5
                            210 ; genAssign (pointer)
   0021 3E E7               211 	ld	a,#0xE7
   0023 12                  212 	ld	(de),a
                            213 ; genPlus
                            214 ; genPlusIncr
   0024 11 06 00            215 	ld	de,#_Ball + 0 + 6
                            216 ; genAssign (pointer)
   0027 3E BD               217 	ld	a,#0xBD
   0029 12                  218 	ld	(de),a
                            219 ; genPlus
                            220 ; genPlusIncr
   002A 11 07 00            221 	ld	de,#_Ball + 0 + 7
                            222 ; genAssign (pointer)
   002D 3E C3               223 	ld	a,#0xC3
   002F 12                  224 	ld	(de),a
                            225 ; genPlus
                            226 ; genPlusIncr
   0030 11 08 00            227 	ld	de,#_Ball + 0 + 8
                            228 ; genAssign (pointer)
   0033 3E BD               229 	ld	a,#0xBD
   0035 12                  230 	ld	(de),a
                            231 ; genPlus
                            232 ; genPlusIncr
   0036 11 09 00            233 	ld	de,#_Ball + 0 + 9
                            234 ; genAssign (pointer)
   0039 3E C3               235 	ld	a,#0xC3
   003B 12                  236 	ld	(de),a
                            237 ; genPlus
                            238 ; genPlusIncr
   003C 11 0A 00            239 	ld	de,#_Ball + 0 + 10
                            240 ; genAssign (pointer)
   003F 3E 99               241 	ld	a,#0x99
   0041 12                  242 	ld	(de),a
                            243 ; genPlus
                            244 ; genPlusIncr
   0042 11 0B 00            245 	ld	de,#_Ball + 0 + 11
                            246 ; genAssign (pointer)
   0045 3E E7               247 	ld	a,#0xE7
   0047 12                  248 	ld	(de),a
                            249 ; genPlus
                            250 ; genPlusIncr
   0048 11 0C 00            251 	ld	de,#_Ball + 0 + 12
                            252 ; genAssign (pointer)
   004B 3E C3               253 	ld	a,#0xC3
   004D 12                  254 	ld	(de),a
                            255 ; genPlus
                            256 ; genPlusIncr
   004E 11 0D 00            257 	ld	de,#_Ball + 0 + 13
                            258 ; genAssign (pointer)
   0051 3E FF               259 	ld	a,#0xFF
   0053 12                  260 	ld	(de),a
                            261 ; genPlus
                            262 ; genPlusIncr
   0054 11 0E 00            263 	ld	de,#_Ball + 0 + 14
                            264 ; genAssign (pointer)
   0057 3E 7E               265 	ld	a,#0x7E
   0059 12                  266 	ld	(de),a
                            267 ; genPlus
                            268 ; genPlusIncr
   005A 11 0F 00            269 	ld	de,#_Ball + 0 + 15
                            270 ; genAssign (pointer)
   005D 3E 7E               271 	ld	a,#0x7E
   005F 12                  272 	ld	(de),a
                            273 ;	main.c 217
                            274 ; genAssign (pointer)
   0060 11 10 00            275 	ld	de,#_Paddle + 0
   0063 3E 18               276 	ld	a,#0x18
   0065 12                  277 	ld	(de),a
                            278 ; genPlus
                            279 ; genPlusIncr
   0066 11 11 00            280 	ld	de,#_Paddle + 0 + 1
                            281 ; genAssign (pointer)
   0069 3E 18               282 	ld	a,#0x18
   006B 12                  283 	ld	(de),a
                            284 ; genPlus
                            285 ; genPlusIncr
   006C 11 12 00            286 	ld	de,#_Paddle + 0 + 2
                            287 ; genAssign (pointer)
   006F 3E 18               288 	ld	a,#0x18
   0071 12                  289 	ld	(de),a
                            290 ; genPlus
                            291 ; genPlusIncr
   0072 11 13 00            292 	ld	de,#_Paddle + 0 + 3
                            293 ; genAssign (pointer)
   0075 3E 18               294 	ld	a,#0x18
   0077 12                  295 	ld	(de),a
                            296 ; genPlus
                            297 ; genPlusIncr
   0078 11 14 00            298 	ld	de,#_Paddle + 0 + 4
                            299 ; genAssign (pointer)
   007B 3E 18               300 	ld	a,#0x18
   007D 12                  301 	ld	(de),a
                            302 ; genPlus
                            303 ; genPlusIncr
   007E 11 15 00            304 	ld	de,#_Paddle + 0 + 5
                            305 ; genAssign (pointer)
   0081 3E 18               306 	ld	a,#0x18
   0083 12                  307 	ld	(de),a
                            308 ; genPlus
                            309 ; genPlusIncr
   0084 11 16 00            310 	ld	de,#_Paddle + 0 + 6
                            311 ; genAssign (pointer)
   0087 3E 18               312 	ld	a,#0x18
   0089 12                  313 	ld	(de),a
                            314 ; genPlus
                            315 ; genPlusIncr
   008A 11 17 00            316 	ld	de,#_Paddle + 0 + 7
                            317 ; genAssign (pointer)
   008D 3E 18               318 	ld	a,#0x18
   008F 12                  319 	ld	(de),a
                            320 ; genPlus
                            321 ; genPlusIncr
   0090 11 18 00            322 	ld	de,#_Paddle + 0 + 8
                            323 ; genAssign (pointer)
   0093 3E 18               324 	ld	a,#0x18
   0095 12                  325 	ld	(de),a
                            326 ; genPlus
                            327 ; genPlusIncr
   0096 11 19 00            328 	ld	de,#_Paddle + 0 + 9
                            329 ; genAssign (pointer)
   0099 3E 18               330 	ld	a,#0x18
   009B 12                  331 	ld	(de),a
                            332 ; genPlus
                            333 ; genPlusIncr
   009C 11 1A 00            334 	ld	de,#_Paddle + 0 + 10
                            335 ; genAssign (pointer)
   009F 3E 18               336 	ld	a,#0x18
   00A1 12                  337 	ld	(de),a
                            338 ; genPlus
                            339 ; genPlusIncr
   00A2 11 1B 00            340 	ld	de,#_Paddle + 0 + 11
                            341 ; genAssign (pointer)
   00A5 3E 18               342 	ld	a,#0x18
   00A7 12                  343 	ld	(de),a
                            344 ; genPlus
                            345 ; genPlusIncr
   00A8 11 1C 00            346 	ld	de,#_Paddle + 0 + 12
                            347 ; genAssign (pointer)
   00AB 3E 18               348 	ld	a,#0x18
   00AD 12                  349 	ld	(de),a
                            350 ; genPlus
                            351 ; genPlusIncr
   00AE 11 1D 00            352 	ld	de,#_Paddle + 0 + 13
                            353 ; genAssign (pointer)
   00B1 3E 18               354 	ld	a,#0x18
   00B3 12                  355 	ld	(de),a
                            356 ; genPlus
                            357 ; genPlusIncr
   00B4 11 1E 00            358 	ld	de,#_Paddle + 0 + 14
                            359 ; genAssign (pointer)
   00B7 3E 18               360 	ld	a,#0x18
   00B9 12                  361 	ld	(de),a
                            362 ; genPlus
                            363 ; genPlusIncr
   00BA 11 1F 00            364 	ld	de,#_Paddle + 0 + 15
                            365 ; genAssign (pointer)
   00BD 3E 18               366 	ld	a,#0x18
   00BF 12                  367 	ld	(de),a
                            368 ;	main.c 217
                            369 ; genAssign
                            370 ; AOP_HL for _Ballxpos
   00C0 21 20 00            371 	ld	hl,#_Ballxpos + 0
   00C3 36 58               372 	ld	(hl),#0x58
   00C5 23                  373 	inc	hl
   00C6 36 00               374 	ld	(hl),#0x00
                            375 ;	main.c 217
                            376 ; genAssign
                            377 ; AOP_HL for _Ballypos
   00C8 21 22 00            378 	ld	hl,#_Ballypos + 0
   00CB 36 4E               379 	ld	(hl),#0x4E
   00CD 23                  380 	inc	hl
   00CE 36 00               381 	ld	(hl),#0x00
                            382 ;	main.c 217
                            383 ; genAssign
                            384 ; AOP_HL for _PrevBallx
   00D0 21 24 00            385 	ld	hl,#_PrevBallx + 0
   00D3 36 00               386 	ld	(hl),#0x00
   00D5 23                  387 	inc	hl
   00D6 36 00               388 	ld	(hl),#0x00
                            389 ;	main.c 217
                            390 ; genAssign
                            391 ; AOP_HL for _PrevBally
   00D8 21 26 00            392 	ld	hl,#_PrevBally + 0
   00DB 36 00               393 	ld	(hl),#0x00
   00DD 23                  394 	inc	hl
   00DE 36 00               395 	ld	(hl),#0x00
                            396 ;	main.c 217
                            397 ; genAssign
                            398 ; AOP_HL for _Ballxvel
   00E0 21 28 00            399 	ld	hl,#_Ballxvel + 0
   00E3 36 00               400 	ld	(hl),#0x00
                            401 ;	main.c 217
                            402 ; genAssign
                            403 ; AOP_HL for _Ballyvel
   00E5 21 29 00            404 	ld	hl,#_Ballyvel + 0
   00E8 36 00               405 	ld	(hl),#0x00
                            406 ;	main.c 217
                            407 ; genAssign
                            408 ; AOP_HL for _PaddleAypos
   00EA 21 2A 00            409 	ld	hl,#_PaddleAypos + 0
   00ED 36 4B               410 	ld	(hl),#0x4B
   00EF 23                  411 	inc	hl
   00F0 36 00               412 	ld	(hl),#0x00
                            413 ;	main.c 217
                            414 ; genAssign
                            415 ; AOP_HL for _PaddleAyvel
   00F2 21 2C 00            416 	ld	hl,#_PaddleAyvel + 0
   00F5 36 00               417 	ld	(hl),#0x00
                            418 ;	main.c 217
                            419 ; genAssign
                            420 ; AOP_HL for _PaddleBypos
   00F7 21 2D 00            421 	ld	hl,#_PaddleBypos + 0
   00FA 36 4B               422 	ld	(hl),#0x4B
   00FC 23                  423 	inc	hl
   00FD 36 00               424 	ld	(hl),#0x00
                            425 ;	main.c 217
                            426 ; genAssign
                            427 ; AOP_HL for _PaddleByvel
   00FF 21 2F 00            428 	ld	hl,#_PaddleByvel + 0
   0102 36 00               429 	ld	(hl),#0x00
                            430 ;	main.c 217
                            431 ; genAssign
                            432 ; AOP_HL for _DistinceFromWall
   0104 21 30 00            433 	ld	hl,#_DistinceFromWall + 0
   0107 36 0A               434 	ld	(hl),#0x0A
                            435 ;	main.c 217
                            436 ; genAssign
                            437 ; AOP_HL for _running
   0109 21 31 00            438 	ld	hl,#_running + 0
   010C 36 00               439 	ld	(hl),#0x00
                            440 ;	main.c 217
                            441 ; genAssign
                            442 ; AOP_HL for _UpPressed
   010E 21 32 00            443 	ld	hl,#_UpPressed + 0
   0111 36 00               444 	ld	(hl),#0x00
                            445 ;	main.c 217
                            446 ; genAssign
                            447 ; AOP_HL for _DownPressed
   0113 21 33 00            448 	ld	hl,#_DownPressed + 0
   0116 36 00               449 	ld	(hl),#0x00
                            450 ;--------------------------------------------------------
                            451 ; Home
                            452 ;--------------------------------------------------------
                            453 	.area _HOME
                            454 	.area _CODE
                            455 ;--------------------------------------------------------
                            456 ; code
                            457 ;--------------------------------------------------------
                            458 	.area _CODE
                            459 ;	main.c 35
                            460 ; genLabel
                            461 ; genFunction
                            462 ;	---------------------------------
                            463 ; Function updateSpritePositions
                            464 ; ---------------------------------
   0000                     465 ___updateSpritePositions_start:
   0000                     466 _updateSpritePositions:
   0000 C5                  467 	push	bc
   0001 E8 F9               468 	lda	sp,-7(sp)
                            469 ;	main.c 36
                            470 ; genCast
                            471 ; AOP_HL for _Ballypos
   0003 21 22 00            472 	ld	hl,#_Ballypos + 0
   0006 4E                  473 	ld	c,(hl)
                            474 ; genCast
                            475 ; AOP_HL for _Ballxpos
   0007 21 20 00            476 	ld	hl,#_Ballxpos + 0
   000A 46                  477 	ld	b,(hl)
                            478 ; genIpush
   000B 79                  479 	ld	a,c
   000C F5                  480 	push	af
   000D 33                  481 	inc	sp
                            482 ; genIpush
   000E 78                  483 	ld	a,b
   000F F5                  484 	push	af
   0010 33                  485 	inc	sp
                            486 ; genIpush
   0011 3E 00               487 	ld	a,#0x00
   0013 F5                  488 	push	af
   0014 33                  489 	inc	sp
                            490 ; genCall
   0015 CD 00 00            491 	call	_move_sprite
   0018 E8 03               492 	lda	sp,3(sp)
                            493 ;	main.c 38
                            494 ; genMinus
                            495 ; AOP_HL for _PaddleAypos
   001A 21 2A 00            496 	ld	hl,#_PaddleAypos + 0
   001D 7E                  497 	ld	a,(hl)
   001E C6 F8               498 	add	a,#0xF8
   0020 4F                  499 	ld	c,a
   0021 23                  500 	inc	hl
   0022 7E                  501 	ld	a,(hl)
   0023 CE FF               502 	adc	a,#0xFF
   0025 47                  503 	ld	b,a
                            504 ; genCast
                            505 ; AOP_STK for _updateSpritePositions_sloc0_1_0
   0026 F8 06               506 	lda	hl,6(sp)
   0028 71                  507 	ld	(hl),c
                            508 ; genAssign
                            509 ; AOP_HL for _DistinceFromWall
   0029 21 30 00            510 	ld	hl,#_DistinceFromWall + 0
   002C 4E                  511 	ld	c,(hl)
                            512 ; genIpush
                            513 ; AOP_STK for _updateSpritePositions_sloc0_1_0
   002D F8 06               514 	lda	hl,6(sp)
   002F 7E                  515 	ld	a,(hl)
   0030 F5                  516 	push	af
   0031 33                  517 	inc	sp
                            518 ; genIpush
   0032 79                  519 	ld	a,c
   0033 F5                  520 	push	af
   0034 33                  521 	inc	sp
                            522 ; genIpush
   0035 3E 01               523 	ld	a,#0x01
   0037 F5                  524 	push	af
   0038 33                  525 	inc	sp
                            526 ; genCall
   0039 CD 00 00            527 	call	_move_sprite
   003C E8 03               528 	lda	sp,3(sp)
                            529 ;	main.c 39
                            530 ; genCast
                            531 ; AOP_HL for _PaddleAypos
                            532 ; AOP_STK for _updateSpritePositions_sloc0_1_0
   003E 21 2A 00            533 	ld	hl,#_PaddleAypos + 0
   0041 7E                  534 	ld	a,(hl)
   0042 F8 06               535 	lda	hl,6(sp)
   0044 77                  536 	ld	(hl),a
                            537 ; genAssign
                            538 ; AOP_HL for _DistinceFromWall
   0045 21 30 00            539 	ld	hl,#_DistinceFromWall + 0
   0048 4E                  540 	ld	c,(hl)
                            541 ; genIpush
                            542 ; AOP_STK for _updateSpritePositions_sloc0_1_0
   0049 F8 06               543 	lda	hl,6(sp)
   004B 7E                  544 	ld	a,(hl)
   004C F5                  545 	push	af
   004D 33                  546 	inc	sp
                            547 ; genIpush
   004E 79                  548 	ld	a,c
   004F F5                  549 	push	af
   0050 33                  550 	inc	sp
                            551 ; genIpush
   0051 3E 02               552 	ld	a,#0x02
   0053 F5                  553 	push	af
   0054 33                  554 	inc	sp
                            555 ; genCall
   0055 CD 00 00            556 	call	_move_sprite
   0058 E8 03               557 	lda	sp,3(sp)
                            558 ;	main.c 40
                            559 ; genPlus
                            560 ; AOP_HL for _PaddleAypos
                            561 ; AOP_STK for _updateSpritePositions_sloc1_1_0
                            562 ; genPlusIncr
                            563 ;	genPlusIncr failed
   005A 21 2A 00            564 	ld	hl,#_PaddleAypos + 0
   005D 5E                  565 	ld	e,(hl)
   005E 23                  566 	inc	hl
   005F 56                  567 	ld	d,(hl)
   0060 21 08 00            568 	ld	hl,#0x0008
   0063 19                  569 	add	hl,de
   0064 7D                  570 	ld	a,l
   0065 54                  571 	ld	d,h
   0066 F8 04               572 	lda	hl,4(sp)
   0068 22                  573 	ld	(hl+),a
   0069 72                  574 	ld	(hl),d
                            575 ; genCast
                            576 ; AOP_STK for _updateSpritePositions_sloc1_1_0
                            577 ; genAssign
                            578 ; AOP_HL for _DistinceFromWall
   006A 21 30 00            579 	ld	hl,#_DistinceFromWall + 0
   006D 4E                  580 	ld	c,(hl)
                            581 ; genIpush
                            582 ; AOP_STK for _updateSpritePositions_sloc1_1_0
   006E F8 04               583 	lda	hl,4(sp)
   0070 7E                  584 	ld	a,(hl)
   0071 F5                  585 	push	af
   0072 33                  586 	inc	sp
                            587 ; genIpush
   0073 79                  588 	ld	a,c
   0074 F5                  589 	push	af
   0075 33                  590 	inc	sp
                            591 ; genIpush
   0076 3E 03               592 	ld	a,#0x03
   0078 F5                  593 	push	af
   0079 33                  594 	inc	sp
                            595 ; genCall
   007A CD 00 00            596 	call	_move_sprite
   007D E8 03               597 	lda	sp,3(sp)
                            598 ;	main.c 42
                            599 ; genMinus
                            600 ; AOP_HL for _PaddleBypos
                            601 ; AOP_STK for _updateSpritePositions_sloc1_1_0
   007F 21 2D 00            602 	ld	hl,#_PaddleBypos + 0
   0082 5E                  603 	ld	e,(hl)
   0083 23                  604 	inc	hl
   0084 56                  605 	ld	d,(hl)
   0085 21 08 00            606 	ld	hl,#0x0008
   0088 7B                  607 	ld	a,e
   0089 95                  608 	sub	a,l
   008A 5F                  609 	ld	e,a
   008B 7A                  610 	ld	a,d
   008C 9C                  611 	sbc	a,h
   008D F8 05               612 	lda	hl,5(sp)
   008F 77                  613 	ld	(hl),a
   0090 2B                  614 	dec	hl
   0091 73                  615 	ld	(hl),e
                            616 ; genCast
                            617 ; AOP_STK for _updateSpritePositions_sloc1_1_0
                            618 ; genAssign
                            619 ; AOP_HL for _width
                            620 ; AOP_STK for _updateSpritePositions_sloc2_1_0
   0092 21 14 01            621 	ld	hl,#_width + 0
   0095 2A                  622 	ld	a,(hl+)
   0096 5E                  623 	ld	e,(hl)
   0097 F8 02               624 	lda	hl,2(sp)
   0099 22                  625 	ld	(hl+),a
   009A 73                  626 	ld	(hl),e
                            627 ; genCast
                            628 ; AOP_HL for _DistinceFromWall
                            629 ; AOP_STK for _updateSpritePositions_sloc3_1_0
   009B 21 30 00            630 	ld	hl,#_DistinceFromWall + 0
   009E 7E                  631 	ld	a,(hl)
   009F F8 00               632 	lda	hl,0(sp)
   00A1 77                  633 	ld	(hl),a
   00A2 21 30 00            634 	ld	hl,#_DistinceFromWall + 0
   00A5 7E                  635 	ld	a,(hl)
                            636 ; genCast: sign extend untested.
   00A6 17                  637 	rla	
   00A7 9F                  638 	sbc	a,a
   00A8 F8 01               639 	lda	hl,1(sp)
                            640 ; genMinus
                            641 ; AOP_STK for _updateSpritePositions_sloc2_1_0
                            642 ; AOP_STK for _updateSpritePositions_sloc3_1_0
   00AA 22                  643 	ld	(hl+),a
   00AB 5E                  644 	ld	e,(hl)
   00AC 23                  645 	inc	hl
   00AD 56                  646 	ld	d,(hl)
   00AE F8 00               647 	lda	hl,0(sp)
   00B0 2A                  648 	ld	a,(hl+)
   00B1 66                  649 	ld	h,(hl)
   00B2 6F                  650 	ld	l,a
   00B3 7B                  651 	ld	a,e
   00B4 95                  652 	sub	a,l
   00B5 5F                  653 	ld	e,a
   00B6 7A                  654 	ld	a,d
   00B7 9C                  655 	sbc	a,h
   00B8 F8 01               656 	lda	hl,1(sp)
   00BA 77                  657 	ld	(hl),a
   00BB 2B                  658 	dec	hl
   00BC 73                  659 	ld	(hl),e
                            660 ; genCast
                            661 ; AOP_STK for _updateSpritePositions_sloc3_1_0
                            662 ; genIpush
                            663 ; AOP_STK for _updateSpritePositions_sloc1_1_0
   00BD F8 04               664 	lda	hl,4(sp)
   00BF 7E                  665 	ld	a,(hl)
   00C0 F5                  666 	push	af
   00C1 33                  667 	inc	sp
                            668 ; genIpush
                            669 ; AOP_STK for _updateSpritePositions_sloc3_1_0
   00C2 F8 01               670 	lda	hl,1(sp)
   00C4 7E                  671 	ld	a,(hl)
   00C5 F5                  672 	push	af
   00C6 33                  673 	inc	sp
                            674 ; genIpush
   00C7 3E 04               675 	ld	a,#0x04
   00C9 F5                  676 	push	af
   00CA 33                  677 	inc	sp
                            678 ; genCall
   00CB CD 00 00            679 	call	_move_sprite
   00CE E8 03               680 	lda	sp,3(sp)
                            681 ;	main.c 43
                            682 ; genCast
                            683 ; AOP_HL for _PaddleBypos
   00D0 21 2D 00            684 	ld	hl,#_PaddleBypos + 0
   00D3 4E                  685 	ld	c,(hl)
                            686 ; genIpush
   00D4 79                  687 	ld	a,c
   00D5 F5                  688 	push	af
   00D6 33                  689 	inc	sp
                            690 ; genIpush
                            691 ; AOP_STK for _updateSpritePositions_sloc3_1_0
   00D7 F8 01               692 	lda	hl,1(sp)
   00D9 7E                  693 	ld	a,(hl)
   00DA F5                  694 	push	af
   00DB 33                  695 	inc	sp
                            696 ; genIpush
   00DC 3E 05               697 	ld	a,#0x05
   00DE F5                  698 	push	af
   00DF 33                  699 	inc	sp
                            700 ; genCall
   00E0 CD 00 00            701 	call	_move_sprite
   00E3 E8 03               702 	lda	sp,3(sp)
                            703 ;	main.c 44
                            704 ; genPlus
                            705 ; AOP_HL for _PaddleBypos
                            706 ; AOP_STK for _updateSpritePositions_sloc2_1_0
                            707 ; genPlusIncr
                            708 ;	genPlusIncr failed
   00E5 21 2D 00            709 	ld	hl,#_PaddleBypos + 0
   00E8 5E                  710 	ld	e,(hl)
   00E9 23                  711 	inc	hl
   00EA 56                  712 	ld	d,(hl)
   00EB 21 08 00            713 	ld	hl,#0x0008
   00EE 19                  714 	add	hl,de
   00EF 7D                  715 	ld	a,l
   00F0 54                  716 	ld	d,h
   00F1 F8 02               717 	lda	hl,2(sp)
   00F3 22                  718 	ld	(hl+),a
   00F4 72                  719 	ld	(hl),d
                            720 ; genCast
                            721 ; AOP_STK for _updateSpritePositions_sloc2_1_0
   00F5 2B                  722 	dec	hl
   00F6 4E                  723 	ld	c,(hl)
                            724 ; genIpush
   00F7 79                  725 	ld	a,c
   00F8 F5                  726 	push	af
   00F9 33                  727 	inc	sp
                            728 ; genIpush
                            729 ; AOP_STK for _updateSpritePositions_sloc3_1_0
   00FA 2B                  730 	dec	hl
   00FB 2B                  731 	dec	hl
   00FC 7E                  732 	ld	a,(hl)
   00FD F5                  733 	push	af
   00FE 33                  734 	inc	sp
                            735 ; genIpush
   00FF 3E 06               736 	ld	a,#0x06
   0101 F5                  737 	push	af
   0102 33                  738 	inc	sp
                            739 ; genCall
   0103 CD 00 00            740 	call	_move_sprite
   0106 E8 03               741 	lda	sp,3(sp)
                            742 ; genLabel
   0108                     743 00101$:
                            744 ; genEndFunction
   0108 E8 07               745 	lda	sp,7(sp)
   010A C1                  746 	pop	bc
   010B C9                  747 	ret
   010C                     748 ___updateSpritePositions_end:
   010C                     749 __ballTileCount:
   010C 01 00               750 	.dw #0x0001
   010E                     751 __ballTileIndex:
   010E 00 00               752 	.dw #0x0000
   0110                     753 __paddleTileCount:
   0110 01 00               754 	.dw #0x0001
   0112                     755 __paddleTileIndex:
   0112 01 00               756 	.dw #0x0001
   0114                     757 _width:
   0114 A0 00               758 	.dw #0x00A0
   0116                     759 _height:
   0116 8C 00               760 	.dw #0x008C
   0118                     761 _xoff:
   0118 0A                  762 	.db #0x0A
   0119                     763 _yoff:
   0119 0F                  764 	.db #0x0F
                            765 ;	main.c 47
                            766 ; genLabel
                            767 ; genFunction
                            768 ;	---------------------------------
                            769 ; Function initSprites
                            770 ; ---------------------------------
   011A                     771 ___initSprites_start:
   011A                     772 _initSprites:
   011A C5                  773 	push	bc
   011B E8 FC               774 	lda	sp,-4(sp)
                            775 ;	main.c 48
                            776 ; genAssign
                            777 ; AOP_HL for __ballTileCount
   011D 21 0C 01            778 	ld	hl,#__ballTileCount + 0
   0120 4E                  779 	ld	c,(hl)
   0121 23                  780 	inc	hl
   0122 46                  781 	ld	b,(hl)
                            782 ; genCast
                            783 ; Removed redundent load
                            784 ; genIpush
   0123 21 00 00            785 	ld	hl,#_Ball + 0
   0126 E5                  786 	push	hl
                            787 ; genIpush
   0127 79                  788 	ld	a,c
   0128 F5                  789 	push	af
   0129 33                  790 	inc	sp
                            791 ; genIpush
   012A 3E 00               792 	ld	a,#0x00
   012C F5                  793 	push	af
   012D 33                  794 	inc	sp
                            795 ; genCall
   012E CD 00 00            796 	call	_set_sprite_data
   0131 E8 04               797 	lda	sp,4(sp)
                            798 ;	main.c 49
                            799 ; genAssign
                            800 ; AOP_HL for __ballTileIndex
                            801 ; AOP_STK for _initSprites_sloc0_1_0
   0133 21 0E 01            802 	ld	hl,#__ballTileIndex + 0
   0136 2A                  803 	ld	a,(hl+)
   0137 5E                  804 	ld	e,(hl)
   0138 F8 02               805 	lda	hl,2(sp)
   013A 22                  806 	ld	(hl+),a
   013B 73                  807 	ld	(hl),e
                            808 ; genCast
                            809 ; AOP_STK for _initSprites_sloc0_1_0
   013C 2B                  810 	dec	hl
   013D 4E                  811 	ld	c,(hl)
                            812 ; genIpush
   013E 79                  813 	ld	a,c
   013F F5                  814 	push	af
   0140 33                  815 	inc	sp
                            816 ; genIpush
   0141 3E 00               817 	ld	a,#0x00
   0143 F5                  818 	push	af
   0144 33                  819 	inc	sp
                            820 ; genCall
   0145 CD 00 00            821 	call	_set_sprite_tile
   0148 E8 02               822 	lda	sp,2(sp)
                            823 ;	main.c 51
                            824 ; genAssign
                            825 ; AOP_HL for __paddleTileCount
                            826 ; AOP_STK for _initSprites_sloc0_1_0
   014A 21 10 01            827 	ld	hl,#__paddleTileCount + 0
   014D 2A                  828 	ld	a,(hl+)
   014E 5E                  829 	ld	e,(hl)
   014F F8 02               830 	lda	hl,2(sp)
   0151 22                  831 	ld	(hl+),a
   0152 73                  832 	ld	(hl),e
                            833 ; genCast
                            834 ; AOP_STK for _initSprites_sloc0_1_0
                            835 ; genIpush
   0153 21 10 00            836 	ld	hl,#_Paddle + 0
   0156 E5                  837 	push	hl
                            838 ; genIpush
                            839 ; AOP_STK for _initSprites_sloc0_1_0
   0157 F8 04               840 	lda	hl,4(sp)
   0159 7E                  841 	ld	a,(hl)
   015A F5                  842 	push	af
   015B 33                  843 	inc	sp
                            844 ; genIpush
   015C 3E 01               845 	ld	a,#0x01
   015E F5                  846 	push	af
   015F 33                  847 	inc	sp
                            848 ; genCall
   0160 CD 00 00            849 	call	_set_sprite_data
   0163 E8 04               850 	lda	sp,4(sp)
                            851 ;	main.c 52
                            852 ; genAssign
                            853 ; AOP_HL for __paddleTileIndex
                            854 ; AOP_STK for _initSprites_sloc1_1_0
   0165 21 12 01            855 	ld	hl,#__paddleTileIndex + 0
   0168 2A                  856 	ld	a,(hl+)
   0169 5E                  857 	ld	e,(hl)
   016A F8 00               858 	lda	hl,0(sp)
   016C 22                  859 	ld	(hl+),a
   016D 73                  860 	ld	(hl),e
                            861 ; genCast
                            862 ; AOP_STK for _initSprites_sloc1_1_0
   016E 2B                  863 	dec	hl
   016F 4E                  864 	ld	c,(hl)
                            865 ; genIpush
   0170 79                  866 	ld	a,c
   0171 F5                  867 	push	af
   0172 33                  868 	inc	sp
                            869 ; genIpush
   0173 3E 01               870 	ld	a,#0x01
   0175 F5                  871 	push	af
   0176 33                  872 	inc	sp
                            873 ; genCall
   0177 CD 00 00            874 	call	_set_sprite_tile
   017A E8 02               875 	lda	sp,2(sp)
                            876 ;	main.c 54
                            877 ; genIpush
   017C 21 10 00            878 	ld	hl,#_Paddle + 0
   017F E5                  879 	push	hl
                            880 ; genIpush
                            881 ; AOP_STK for _initSprites_sloc0_1_0
   0180 F8 04               882 	lda	hl,4(sp)
   0182 7E                  883 	ld	a,(hl)
   0183 F5                  884 	push	af
   0184 33                  885 	inc	sp
                            886 ; genIpush
   0185 3E 02               887 	ld	a,#0x02
   0187 F5                  888 	push	af
   0188 33                  889 	inc	sp
                            890 ; genCall
   0189 CD 00 00            891 	call	_set_sprite_data
   018C E8 04               892 	lda	sp,4(sp)
                            893 ;	main.c 55
                            894 ; genIpush
   018E 79                  895 	ld	a,c
   018F F5                  896 	push	af
   0190 33                  897 	inc	sp
                            898 ; genIpush
   0191 3E 02               899 	ld	a,#0x02
   0193 F5                  900 	push	af
   0194 33                  901 	inc	sp
                            902 ; genCall
   0195 CD 00 00            903 	call	_set_sprite_tile
   0198 E8 02               904 	lda	sp,2(sp)
                            905 ;	main.c 57
                            906 ; genIpush
   019A 21 10 00            907 	ld	hl,#_Paddle + 0
   019D E5                  908 	push	hl
                            909 ; genIpush
                            910 ; AOP_STK for _initSprites_sloc0_1_0
   019E F8 04               911 	lda	hl,4(sp)
   01A0 7E                  912 	ld	a,(hl)
   01A1 F5                  913 	push	af
   01A2 33                  914 	inc	sp
                            915 ; genIpush
   01A3 3E 03               916 	ld	a,#0x03
   01A5 F5                  917 	push	af
   01A6 33                  918 	inc	sp
                            919 ; genCall
   01A7 CD 00 00            920 	call	_set_sprite_data
   01AA E8 04               921 	lda	sp,4(sp)
                            922 ;	main.c 58
                            923 ; genIpush
   01AC 79                  924 	ld	a,c
   01AD F5                  925 	push	af
   01AE 33                  926 	inc	sp
                            927 ; genIpush
   01AF 3E 03               928 	ld	a,#0x03
   01B1 F5                  929 	push	af
   01B2 33                  930 	inc	sp
                            931 ; genCall
   01B3 CD 00 00            932 	call	_set_sprite_tile
   01B6 E8 02               933 	lda	sp,2(sp)
                            934 ;	main.c 60
                            935 ; genIpush
   01B8 21 10 00            936 	ld	hl,#_Paddle + 0
   01BB E5                  937 	push	hl
                            938 ; genIpush
                            939 ; AOP_STK for _initSprites_sloc0_1_0
   01BC F8 04               940 	lda	hl,4(sp)
   01BE 7E                  941 	ld	a,(hl)
   01BF F5                  942 	push	af
   01C0 33                  943 	inc	sp
                            944 ; genIpush
   01C1 3E 04               945 	ld	a,#0x04
   01C3 F5                  946 	push	af
   01C4 33                  947 	inc	sp
                            948 ; genCall
   01C5 CD 00 00            949 	call	_set_sprite_data
   01C8 E8 04               950 	lda	sp,4(sp)
                            951 ;	main.c 61
                            952 ; genIpush
   01CA 79                  953 	ld	a,c
   01CB F5                  954 	push	af
   01CC 33                  955 	inc	sp
                            956 ; genIpush
   01CD 3E 04               957 	ld	a,#0x04
   01CF F5                  958 	push	af
   01D0 33                  959 	inc	sp
                            960 ; genCall
   01D1 CD 00 00            961 	call	_set_sprite_tile
   01D4 E8 02               962 	lda	sp,2(sp)
                            963 ;	main.c 63
                            964 ; genIpush
   01D6 21 10 00            965 	ld	hl,#_Paddle + 0
   01D9 E5                  966 	push	hl
                            967 ; genIpush
                            968 ; AOP_STK for _initSprites_sloc0_1_0
   01DA F8 04               969 	lda	hl,4(sp)
   01DC 7E                  970 	ld	a,(hl)
   01DD F5                  971 	push	af
   01DE 33                  972 	inc	sp
                            973 ; genIpush
   01DF 3E 05               974 	ld	a,#0x05
   01E1 F5                  975 	push	af
   01E2 33                  976 	inc	sp
                            977 ; genCall
   01E3 CD 00 00            978 	call	_set_sprite_data
   01E6 E8 04               979 	lda	sp,4(sp)
                            980 ;	main.c 64
                            981 ; genIpush
   01E8 79                  982 	ld	a,c
   01E9 F5                  983 	push	af
   01EA 33                  984 	inc	sp
                            985 ; genIpush
   01EB 3E 05               986 	ld	a,#0x05
   01ED F5                  987 	push	af
   01EE 33                  988 	inc	sp
                            989 ; genCall
   01EF CD 00 00            990 	call	_set_sprite_tile
   01F2 E8 02               991 	lda	sp,2(sp)
                            992 ;	main.c 66
                            993 ; genIpush
   01F4 21 10 00            994 	ld	hl,#_Paddle + 0
   01F7 E5                  995 	push	hl
                            996 ; genIpush
                            997 ; AOP_STK for _initSprites_sloc0_1_0
   01F8 F8 04               998 	lda	hl,4(sp)
   01FA 7E                  999 	ld	a,(hl)
   01FB F5                 1000 	push	af
   01FC 33                 1001 	inc	sp
                           1002 ; genIpush
   01FD 3E 06              1003 	ld	a,#0x06
   01FF F5                 1004 	push	af
   0200 33                 1005 	inc	sp
                           1006 ; genCall
   0201 CD 00 00           1007 	call	_set_sprite_data
   0204 E8 04              1008 	lda	sp,4(sp)
                           1009 ;	main.c 67
                           1010 ; genIpush
   0206 79                 1011 	ld	a,c
   0207 F5                 1012 	push	af
   0208 33                 1013 	inc	sp
                           1014 ; genIpush
   0209 3E 06              1015 	ld	a,#0x06
   020B F5                 1016 	push	af
   020C 33                 1017 	inc	sp
                           1018 ; genCall
   020D CD 00 00           1019 	call	_set_sprite_tile
   0210 E8 02              1020 	lda	sp,2(sp)
                           1021 ;	main.c 69
                           1022 ; genOr
                           1023 ; AOP_SFR for _LCDC_REG
                           1024 ; Type res[4] = l[4]&r[1]
                           1025 ; Size res[1] = l[1]&r[1]
   0212 F0 00              1026 	ldh	a,(_LCDC_REG+0) ; x
   0214 F6 02              1027 	or	a,#0x02
   0216 E0 00              1028 	ldh	(_LCDC_REG+0),a
                           1029 ; genLabel
   0218                    1030 00101$:
                           1031 ; genEndFunction
   0218 E8 04              1032 	lda	sp,4(sp)
   021A C1                 1033 	pop	bc
   021B C9                 1034 	ret
   021C                    1035 ___initSprites_end:
                           1036 ;	main.c 72
                           1037 ; genLabel
                           1038 ; genFunction
                           1039 ;	---------------------------------
                           1040 ; Function score
                           1041 ; ---------------------------------
   021C                    1042 ___score_start:
   021C                    1043 _score:
   021C C5                 1044 	push	bc
   021D E8 FC              1045 	lda	sp,-4(sp)
                           1046 ;	main.c 74
                           1047 ; genAssign
                           1048 ; AOP_HL for _running
   021F 21 31 00           1049 	ld	hl,#_running + 0
   0222 36 00              1050 	ld	(hl),#0x00
                           1051 ;	main.c 76
                           1052 ; genCast
                           1053 ; AOP_HL for _Ballxvel
                           1054 ; AOP_STK for _score_sloc0_1_0
   0224 21 28 00           1055 	ld	hl,#_Ballxvel + 0
   0227 7E                 1056 	ld	a,(hl)
   0228 F8 02              1057 	lda	hl,2(sp)
   022A 77                 1058 	ld	(hl),a
   022B 21 28 00           1059 	ld	hl,#_Ballxvel + 0
   022E 7E                 1060 	ld	a,(hl)
                           1061 ; genCast: sign extend untested.
   022F 17                 1062 	rla	
   0230 9F                 1063 	sbc	a,a
   0231 F8 03              1064 	lda	hl,3(sp)
   0233 77                 1065 	ld	(hl),a
                           1066 ; genIpush
                           1067 ; AOP_STK for _score_sloc0_1_0
   0234 2B                 1068 	dec	hl
   0235 2A                 1069 	ld	a,(hl+)
   0236 66                 1070 	ld	h,(hl)
   0237 6F                 1071 	ld	l,a
   0238 E5                 1072 	push	hl
                           1073 ; genIpush
                           1074 ; AOP_HL for _Ballxpos
   0239 21 20 00           1075 	ld	hl,#_Ballxpos + 0
   023C 2A                 1076 	ld	a,(hl+)
   023D 66                 1077 	ld	h,(hl)
   023E 6F                 1078 	ld	l,a
   023F E5                 1079 	push	hl
                           1080 ; genCall
   0240 CD 00 00           1081 	call	__mulsint
                           1082 ; AOP_STK for _score_sloc1_1_0
   0243 F8 05              1083 	lda	hl,5(sp)
   0245 72                 1084 	ld	(hl),d
   0246 2B                 1085 	dec	hl
   0247 73                 1086 	ld	(hl),e
   0248 E8 04              1087 	lda	sp,4(sp)
                           1088 ; genIpush
                           1089 ; AOP_STK for _score_sloc0_1_0
   024A 23                 1090 	inc	hl
   024B 23                 1091 	inc	hl
   024C 2A                 1092 	ld	a,(hl+)
   024D 66                 1093 	ld	h,(hl)
   024E 6F                 1094 	ld	l,a
   024F E5                 1095 	push	hl
                           1096 ; genIpush
                           1097 ; AOP_HL for _Ballypos
   0250 21 22 00           1098 	ld	hl,#_Ballypos + 0
   0253 2A                 1099 	ld	a,(hl+)
   0254 66                 1100 	ld	h,(hl)
   0255 6F                 1101 	ld	l,a
   0256 E5                 1102 	push	hl
                           1103 ; genCall
   0257 CD 00 00           1104 	call	__mulsint
   025A 42                 1105 	ld	b,d
   025B 4B                 1106 	ld	c,e
   025C E8 04              1107 	lda	sp,4(sp)
                           1108 ; genPlus
                           1109 ; AOP_STK for _score_sloc1_1_0
                           1110 ;	genPlusIncr failed
   025E F8 00              1111 	lda	hl,0(sp)
   0260 2A                 1112 	ld	a,(hl+)
   0261 66                 1113 	ld	h,(hl)
   0262 6F                 1114 	ld	l,a
   0263 09                 1115 	add	hl,bc
   0264 4D                 1116 	ld	c,l
   0265 44                 1117 	ld	b,h
                           1118 ; genIpush
   0266 C5                 1119 	push	bc
                           1120 ; genCall
   0267 CD 00 00           1121 	call	srand
   026A E8 02              1122 	lda	sp,2(sp)
                           1123 ;	main.c 81
                           1124 ; genAssign
                           1125 ; AOP_HL for _Ballxvel
   026C 21 28 00           1126 	ld	hl,#_Ballxvel + 0
   026F 36 00              1127 	ld	(hl),#0x00
                           1128 ;	main.c 82
                           1129 ; genAssign
                           1130 ; AOP_HL for _Ballyvel
   0271 21 29 00           1131 	ld	hl,#_Ballyvel + 0
   0274 36 00              1132 	ld	(hl),#0x00
                           1133 ;	main.c 85
                           1134 ; genAssign
                           1135 ; AOP_HL for _Ballxpos
   0276 21 20 00           1136 	ld	hl,#_Ballxpos + 0
   0279 36 58              1137 	ld	(hl),#0x58
   027B 23                 1138 	inc	hl
   027C 36 00              1139 	ld	(hl),#0x00
                           1140 ;	main.c 86
                           1141 ; genAssign
                           1142 ; AOP_HL for _Ballypos
   027E 21 22 00           1143 	ld	hl,#_Ballypos + 0
   0281 36 4E              1144 	ld	(hl),#0x4E
   0283 23                 1145 	inc	hl
   0284 36 00              1146 	ld	(hl),#0x00
                           1147 ;	main.c 88
                           1148 ; genAssign
                           1149 ; AOP_HL for _PaddleAypos
   0286 21 2A 00           1150 	ld	hl,#_PaddleAypos + 0
   0289 36 4B              1151 	ld	(hl),#0x4B
   028B 23                 1152 	inc	hl
   028C 36 00              1153 	ld	(hl),#0x00
                           1154 ;	main.c 89
                           1155 ; genAssign
                           1156 ; AOP_HL for _PaddleAyvel
   028E 21 2C 00           1157 	ld	hl,#_PaddleAyvel + 0
   0291 36 00              1158 	ld	(hl),#0x00
                           1159 ;	main.c 91
                           1160 ; genAssign
                           1161 ; AOP_HL for _PaddleBypos
   0293 21 2D 00           1162 	ld	hl,#_PaddleBypos + 0
   0296 36 4B              1163 	ld	(hl),#0x4B
   0298 23                 1164 	inc	hl
   0299 36 00              1165 	ld	(hl),#0x00
                           1166 ;	main.c 92
                           1167 ; genAssign
                           1168 ; AOP_HL for _PaddleByvel
   029B 21 2F 00           1169 	ld	hl,#_PaddleByvel + 0
   029E 36 00              1170 	ld	(hl),#0x00
                           1171 ; genLabel
   02A0                    1172 00101$:
                           1173 ; genEndFunction
   02A0 E8 04              1174 	lda	sp,4(sp)
   02A2 C1                 1175 	pop	bc
   02A3 C9                 1176 	ret
   02A4                    1177 ___score_end:
                           1178 ;	main.c 95
                           1179 ; genLabel
                           1180 ; genFunction
                           1181 ;	---------------------------------
                           1182 ; Function AIMove
                           1183 ; ---------------------------------
   02A4                    1184 ___AIMove_start:
   02A4                    1185 _AIMove:
   02A4 C5                 1186 	push	bc
   02A5 E8 FE              1187 	lda	sp,-2(sp)
                           1188 ;	main.c 96
                           1189 ; genAssign
                           1190 ; AOP_HL for _Ballypos
                           1191 ; AOP_HL for _PaddleBypos
   02A7 21 22 00           1192 	ld	hl,#_Ballypos + 0
   02AA 2A                 1193 	ld	a,(hl+)
   02AB 5E                 1194 	ld	e,(hl)
   02AC 21 2D 00           1195 	ld	hl,#_PaddleBypos + 0
   02AF 22                 1196 	ld	(hl+),a
   02B0 73                 1197 	ld	(hl),e
                           1198 ;	main.c 98
                           1199 ; genMinus
                           1200 ; AOP_HL for _Ballypos
                           1201 ; AOP_STK for _AIMove_sloc0_1_0
   02B1 21 22 00           1202 	ld	hl,#_Ballypos + 0
   02B4 5E                 1203 	ld	e,(hl)
   02B5 23                 1204 	inc	hl
   02B6 56                 1205 	ld	d,(hl)
   02B7 21 08 00           1206 	ld	hl,#0x0008
   02BA 7B                 1207 	ld	a,e
   02BB 95                 1208 	sub	a,l
   02BC 5F                 1209 	ld	e,a
   02BD 7A                 1210 	ld	a,d
   02BE 9C                 1211 	sbc	a,h
   02BF F8 01              1212 	lda	hl,1(sp)
   02C1 77                 1213 	ld	(hl),a
   02C2 2B                 1214 	dec	hl
   02C3 73                 1215 	ld	(hl),e
                           1216 ; genMinus
                           1217 ; AOP_HL for _PaddleBypos
   02C4 21 2D 00           1218 	ld	hl,#_PaddleBypos + 0
   02C7 7E                 1219 	ld	a,(hl)
   02C8 C6 F4              1220 	add	a,#0xF4
   02CA 4F                 1221 	ld	c,a
   02CB 23                 1222 	inc	hl
   02CC 7E                 1223 	ld	a,(hl)
   02CD CE FF              1224 	adc	a,#0xFF
   02CF 47                 1225 	ld	b,a
                           1226 ; genMinus
                           1227 ; AOP_STK for _AIMove_sloc0_1_0
   02D0 F8 00              1228 	lda	hl,0(sp)
   02D2 5E                 1229 	ld	e,(hl)
   02D3 23                 1230 	inc	hl
   02D4 56                 1231 	ld	d,(hl)
                           1232 ; Removed redundent load
                           1233 ; Removed redundent load
   02D5 7B                 1234 	ld	a,e
   02D6 91                 1235 	sub	a,c
   02D7 5F                 1236 	ld	e,a
   02D8 7A                 1237 	ld	a,d
   02D9 98                 1238 	sbc	a,b
   02DA 47                 1239 	ld	b,a
   02DB 4B                 1240 	ld	c,e
                           1241 ; genCast
                           1242 ; AOP_HL for _PaddleByvel
   02DC 21 2F 00           1243 	ld	hl,#_PaddleByvel + 0
   02DF 71                 1244 	ld	(hl),c
                           1245 ;	main.c 99
                           1246 ; genCmpGt
                           1247 ; AOP_HL for _PaddleByvel
   02E0 1E 85              1248 	ld	e,#0x85
   02E2 7E                 1249 	ld	a,(hl)
   02E3 EE 80              1250 	xor	a,#0x80
   02E5 57                 1251 	ld	d,a
   02E6 7B                 1252 	ld	a,e
   02E7 9A                 1253 	sbc	a,d
   02E8 D2 ED 02           1254 	jp	nc,00103$
                           1255 ;	main.c 100
                           1256 ; genAssign
                           1257 ; AOP_HL for _PaddleByvel
   02EB 36 05              1258 	ld	(hl),#0x05
                           1259 ; genLabel
   02ED                    1260 00103$:
                           1261 ; genEndFunction
   02ED E8 02              1262 	lda	sp,2(sp)
   02EF C1                 1263 	pop	bc
   02F0 C9                 1264 	ret
   02F1                    1265 ___AIMove_end:
                           1266 ;	main.c 106
                           1267 ; genLabel
                           1268 ; genFunction
                           1269 ;	---------------------------------
                           1270 ; Function PlayerMove
                           1271 ; ---------------------------------
   02F1                    1272 ___PlayerMove_start:
   02F1                    1273 _PlayerMove:
   02F1 C5                 1274 	push	bc
                           1275 	
                           1276 ;	main.c 107
                           1277 ; genCall
   02F2 CD 00 00           1278 	call	_joypad
   02F5 4B                 1279 	ld	c,e
                           1280 ; genAnd
   02F6 79                 1281 	ld	a,c
   02F7 CB 57              1282 	bit	2,a
   02F9 CA 04 03           1283 	jp	z,00102$
                           1284 ;	main.c 108
                           1285 ; genAssign
                           1286 ; AOP_HL for _UpPressed
   02FC 21 32 00           1287 	ld	hl,#_UpPressed + 0
   02FF 36 01              1288 	ld	(hl),#0x01
                           1289 ; genGoto
   0301 C3 09 03           1290 	jp	00103$
                           1291 ; genLabel
   0304                    1292 00102$:
                           1293 ;	main.c 110
                           1294 ; genAssign
                           1295 ; AOP_HL for _UpPressed
   0304 21 32 00           1296 	ld	hl,#_UpPressed + 0
   0307 36 00              1297 	ld	(hl),#0x00
                           1298 ; genLabel
   0309                    1299 00103$:
                           1300 ;	main.c 112
                           1301 ; genCall
   0309 CD 00 00           1302 	call	_joypad
   030C 4B                 1303 	ld	c,e
                           1304 ; genAnd
   030D 79                 1305 	ld	a,c
   030E CB 5F              1306 	bit	3,a
   0310 CA 1B 03           1307 	jp	z,00105$
                           1308 ;	main.c 113
                           1309 ; genAssign
                           1310 ; AOP_HL for _DownPressed
   0313 21 33 00           1311 	ld	hl,#_DownPressed + 0
   0316 36 01              1312 	ld	(hl),#0x01
                           1313 ; genGoto
   0318 C3 20 03           1314 	jp	00106$
                           1315 ; genLabel
   031B                    1316 00105$:
                           1317 ;	main.c 115
                           1318 ; genAssign
                           1319 ; AOP_HL for _DownPressed
   031B 21 33 00           1320 	ld	hl,#_DownPressed + 0
   031E 36 00              1321 	ld	(hl),#0x00
                           1322 ; genLabel
   0320                    1323 00106$:
                           1324 ;	main.c 117
                           1325 ; genIfx
                           1326 ; AOP_HL for _UpPressed
   0320 AF                 1327 	xor	a,a
   0321 21 32 00           1328 	ld	hl,#_UpPressed + 0
   0324 B6                 1329 	or	a,(hl)
   0325 B7                 1330 	or	a,a
   0326 CA 31 03           1331 	jp	z,00111$
                           1332 ;	main.c 118
                           1333 ; genAssign
                           1334 ; AOP_HL for _PaddleAyvel
   0329 21 2C 00           1335 	ld	hl,#_PaddleAyvel + 0
   032C 36 FB              1336 	ld	(hl),#0xFB
                           1337 ; genGoto
   032E C3 47 03           1338 	jp	00113$
                           1339 ; genLabel
   0331                    1340 00111$:
                           1341 ;	main.c 119
                           1342 ; genIfx
                           1343 ; AOP_HL for _DownPressed
   0331 AF                 1344 	xor	a,a
   0332 21 33 00           1345 	ld	hl,#_DownPressed + 0
   0335 B6                 1346 	or	a,(hl)
   0336 B7                 1347 	or	a,a
   0337 CA 42 03           1348 	jp	z,00108$
                           1349 ;	main.c 120
                           1350 ; genAssign
                           1351 ; AOP_HL for _PaddleAyvel
   033A 21 2C 00           1352 	ld	hl,#_PaddleAyvel + 0
   033D 36 05              1353 	ld	(hl),#0x05
                           1354 ; genGoto
   033F C3 47 03           1355 	jp	00113$
                           1356 ; genLabel
   0342                    1357 00108$:
                           1358 ;	main.c 122
                           1359 ; genAssign
                           1360 ; AOP_HL for _PaddleAyvel
   0342 21 2C 00           1361 	ld	hl,#_PaddleAyvel + 0
   0345 36 00              1362 	ld	(hl),#0x00
                           1363 ; genLabel
   0347                    1364 00113$:
                           1365 ; genEndFunction
                           1366 	
   0347 C1                 1367 	pop	bc
   0348 C9                 1368 	ret
   0349                    1369 ___PlayerMove_end:
                           1370 ;	main.c 137
                           1371 ; genLabel
                           1372 ; genFunction
                           1373 ;	---------------------------------
                           1374 ; Function main
                           1375 ; ---------------------------------
   0349                    1376 ___main_start:
   0349                    1377 _main:
   0349 C5                 1378 	push	bc
   034A E8 FB              1379 	lda	sp,-5(sp)
                           1380 ;	main.c 138
                           1381 ; genCall
   034C CD 00 00           1382 	call	init
                           1383 ;	main.c 139
                           1384 ; genCall
   034F CD 1A 01           1385 	call	_initSprites
                           1386 ;	main.c 140
                           1387 ; genIpush
   0352 21 00 01           1388 	ld	hl,#0x0100
   0355 E5                 1389 	push	hl
                           1390 ; genCall
   0356 CD 00 00           1391 	call	_rand
   0359 E8 02              1392 	lda	sp,2(sp)
                           1393 ;	main.c 142
                           1394 ; genLabel
   035B                    1395 00156$:
                           1396 ;	main.c 143
                           1397 ; genCall
   035B CD F1 02           1398 	call	_PlayerMove
                           1399 ;	main.c 145
                           1400 ; genCmpEq
                           1401 ; AOP_HL for _running
   035E 21 31 00           1402 	ld	hl,#_running + 0
   0361 7E                 1403 	ld	a,(hl) ; 2
   0362 FE 01              1404 	cp	a,#0x01
   0364 C2 69 03           1405 	jp	nz,00190$
   0367 18 03              1406 	jr	00191$
   0369                    1407 00190$:
   0369 C3 F2 06           1408 	jp	00153$
   036C                    1409 00191$:
                           1410 ;	main.c 146
                           1411 ; genCall
   036C CD A4 02           1412 	call	_AIMove
                           1413 ;	main.c 148
                           1414 ; genAssign
                           1415 ; AOP_HL for _width
   036F 21 14 01           1416 	ld	hl,#_width + 0
   0372 4E                 1417 	ld	c,(hl)
   0373 23                 1418 	inc	hl
   0374 46                 1419 	ld	b,(hl)
                           1420 ; genCmpGt
                           1421 ; AOP_HL for _Ballxpos
   0375 78                 1422 	ld	a,b
   0376 EE 80              1423 	xor	a,#0x80
   0378 5F                 1424 	ld	e,a
   0379 21 21 00           1425 	ld	hl,#_Ballxpos + 0 + 1
   037C 7E                 1426 	ld	a,(hl)
   037D EE 80              1427 	xor	a,#0x80
   037F 57                 1428 	ld	d,a
   0380 79                 1429 	ld	a,c
   0381 2B                 1430 	dec	hl
   0382 9E                 1431 	sbc	a,(hl) ; 2
   0383 7B                 1432 	ld	a,e
   0384 9A                 1433 	sbc	a,d
   0385 DA 9D 03           1434 	jp	c,00101$
                           1435 ; genMinus
                           1436 ; AOP_HL for _Ballxpos
   0388 7E                 1437 	ld	a,(hl)
   0389 C6 F8              1438 	add	a,#0xF8
   038B 4F                 1439 	ld	c,a
   038C 23                 1440 	inc	hl
   038D 7E                 1441 	ld	a,(hl)
   038E CE FF              1442 	adc	a,#0xFF
   0390 47                 1443 	ld	b,a
                           1444 ; genCmpLt
   0391 59                 1445 	ld	e,c
   0392 78                 1446 	ld	a,b
   0393 EE 80              1447 	xor	a,#0x80
   0395 57                 1448 	ld	d,a
   0396 21 00 80           1449 	ld	hl,#0x8000
   0399 19                 1450 	add	hl,de
   039A DA A0 03           1451 	jp	c,00102$
                           1452 ; genLabel
   039D                    1453 00101$:
                           1454 ;	main.c 149
                           1455 ; genCall
   039D CD 1C 02           1456 	call	_score
                           1457 ; genLabel
   03A0                    1458 00102$:
                           1459 ;	main.c 150
                           1460 ; genMinus
                           1461 ; AOP_HL for _Ballypos
                           1462 ; AOP_STK for _main_sloc0_1_0
   03A0 21 22 00           1463 	ld	hl,#_Ballypos + 0
   03A3 5E                 1464 	ld	e,(hl)
   03A4 23                 1465 	inc	hl
   03A5 56                 1466 	ld	d,(hl)
   03A6 21 08 00           1467 	ld	hl,#0x0008
   03A9 7B                 1468 	ld	a,e
   03AA 95                 1469 	sub	a,l
   03AB 5F                 1470 	ld	e,a
   03AC 7A                 1471 	ld	a,d
   03AD 9C                 1472 	sbc	a,h
   03AE F8 04              1473 	lda	hl,4(sp)
   03B0 77                 1474 	ld	(hl),a
   03B1 2B                 1475 	dec	hl
   03B2 73                 1476 	ld	(hl),e
                           1477 ; genAssign
                           1478 ; AOP_HL for _height
   03B3 21 16 01           1479 	ld	hl,#_height + 0
   03B6 4E                 1480 	ld	c,(hl)
   03B7 23                 1481 	inc	hl
   03B8 46                 1482 	ld	b,(hl)
                           1483 ; genCmpGt
                           1484 ; AOP_STK for _main_sloc0_1_0
   03B9 78                 1485 	ld	a,b
   03BA EE 80              1486 	xor	a,#0x80
   03BC 5F                 1487 	ld	e,a
   03BD F8 04              1488 	lda	hl,4(sp)
   03BF 7E                 1489 	ld	a,(hl)
   03C0 EE 80              1490 	xor	a,#0x80
   03C2 57                 1491 	ld	d,a
   03C3 79                 1492 	ld	a,c
   03C4 2B                 1493 	dec	hl
   03C5 9E                 1494 	sbc	a,(hl) ; 2
   03C6 7B                 1495 	ld	a,e
   03C7 9A                 1496 	sbc	a,d
   03C8 DA E3 03           1497 	jp	c,00104$
                           1498 ; genMinus
                           1499 ; AOP_HL for _Ballypos
   03CB 21 22 00           1500 	ld	hl,#_Ballypos + 0
   03CE 7E                 1501 	ld	a,(hl)
   03CF C6 F0              1502 	add	a,#0xF0
   03D1 4F                 1503 	ld	c,a
   03D2 23                 1504 	inc	hl
   03D3 7E                 1505 	ld	a,(hl)
   03D4 CE FF              1506 	adc	a,#0xFF
   03D6 47                 1507 	ld	b,a
                           1508 ; genCmpLt
   03D7 59                 1509 	ld	e,c
   03D8 78                 1510 	ld	a,b
   03D9 EE 80              1511 	xor	a,#0x80
   03DB 57                 1512 	ld	d,a
   03DC 21 00 80           1513 	ld	hl,#0x8000
   03DF 19                 1514 	add	hl,de
   03E0 DA EB 03           1515 	jp	c,00105$
                           1516 ; genLabel
   03E3                    1517 00104$:
                           1518 ;	main.c 151
                           1519 ; genUminus
                           1520 ; AOP_HL for _Ballyvel
   03E3 AF                 1521 	xor	a,a
   03E4 21 29 00           1522 	ld	hl,#_Ballyvel + 0
   03E7 3E 00              1523 	ld	a,#0x00
   03E9 9E                 1524 	sbc	a,(hl)
   03EA 77                 1525 	ld	(hl),a
                           1526 ; genLabel
   03EB                    1527 00105$:
                           1528 ;	main.c 153
                           1529 ; genCmpGt
                           1530 ; AOP_HL for _Ballxvel
   03EB 1E 80              1531 	ld	e,#0x80
   03ED 21 28 00           1532 	ld	hl,#_Ballxvel + 0
   03F0 7E                 1533 	ld	a,(hl)
   03F1 EE 80              1534 	xor	a,#0x80
   03F3 57                 1535 	ld	d,a
   03F4 7B                 1536 	ld	a,e
   03F5 9A                 1537 	sbc	a,d
   03F6 D2 B0 04           1538 	jp	nc,00113$
                           1539 ; genAssign
                           1540 ; AOP_HL for _width
                           1541 ; AOP_STK for _main_sloc0_1_0
   03F9 21 14 01           1542 	ld	hl,#_width + 0
   03FC 2A                 1543 	ld	a,(hl+)
   03FD 5E                 1544 	ld	e,(hl)
   03FE F8 03              1545 	lda	hl,3(sp)
   0400 22                 1546 	ld	(hl+),a
   0401 73                 1547 	ld	(hl),e
                           1548 ; genCast
                           1549 ; AOP_HL for _DistinceFromWall
   0402 21 30 00           1550 	ld	hl,#_DistinceFromWall + 0
   0405 4E                 1551 	ld	c,(hl)
   0406 7E                 1552 	ld	a,(hl)
                           1553 ; genCast: sign extend untested.
   0407 17                 1554 	rla	
   0408 9F                 1555 	sbc	a,a
   0409 47                 1556 	ld	b,a
                           1557 ; genMinus
                           1558 ; AOP_STK for _main_sloc0_1_0
   040A F8 03              1559 	lda	hl,3(sp)
   040C 5E                 1560 	ld	e,(hl)
   040D 23                 1561 	inc	hl
   040E 56                 1562 	ld	d,(hl)
                           1563 ; Removed redundent load
                           1564 ; Removed redundent load
   040F 7B                 1565 	ld	a,e
   0410 91                 1566 	sub	a,c
   0411 5F                 1567 	ld	e,a
   0412 7A                 1568 	ld	a,d
   0413 98                 1569 	sbc	a,b
   0414 47                 1570 	ld	b,a
   0415 4B                 1571 	ld	c,e
                           1572 ; genMinus
   0416 79                 1573 	ld	a,c
   0417 C6 FC              1574 	add	a,#0xFC
   0419 4F                 1575 	ld	c,a
   041A 78                 1576 	ld	a,b
   041B CE FF              1577 	adc	a,#0xFF
   041D 47                 1578 	ld	b,a
                           1579 ; genCmpLt
                           1580 ; AOP_HL for _Ballxpos
   041E 21 21 00           1581 	ld	hl,#_Ballxpos + 0 + 1
   0421 7E                 1582 	ld	a,(hl)
   0422 EE 80              1583 	xor	a,#0x80
   0424 5F                 1584 	ld	e,a
   0425 78                 1585 	ld	a,b
   0426 EE 80              1586 	xor	a,#0x80
   0428 57                 1587 	ld	d,a
   0429 2B                 1588 	dec	hl
   042A 7E                 1589 	ld	a,(hl)
   042B 99                 1590 	sbc	a,c ; 2
   042C 7B                 1591 	ld	a,e
   042D 9A                 1592 	sbc	a,d
   042E DA B0 04           1593 	jp	c,00113$
                           1594 ; genMinus
                           1595 ; AOP_HL for _Ballypos
                           1596 ; AOP_STK for _main_sloc0_1_0
   0431 21 22 00           1597 	ld	hl,#_Ballypos + 0
   0434 5E                 1598 	ld	e,(hl)
   0435 23                 1599 	inc	hl
   0436 56                 1600 	ld	d,(hl)
   0437 21 0D 00           1601 	ld	hl,#0x000D
   043A 7B                 1602 	ld	a,e
   043B 95                 1603 	sub	a,l
   043C 5F                 1604 	ld	e,a
   043D 7A                 1605 	ld	a,d
   043E 9C                 1606 	sbc	a,h
   043F F8 04              1607 	lda	hl,4(sp)
   0441 77                 1608 	ld	(hl),a
   0442 2B                 1609 	dec	hl
   0443 73                 1610 	ld	(hl),e
                           1611 ; genCmpGt
                           1612 ; AOP_STK for _main_sloc0_1_0
                           1613 ; AOP_HL for _PaddleBypos
   0444 21 2E 00           1614 	ld	hl,#_PaddleBypos + 0 + 1
   0447 7E                 1615 	ld	a,(hl)
   0448 EE 80              1616 	xor	a,#0x80
   044A 5F                 1617 	ld	e,a
   044B F8 04              1618 	lda	hl,4(sp)
   044D 7E                 1619 	ld	a,(hl)
   044E EE 80              1620 	xor	a,#0x80
   0450 57                 1621 	ld	d,a
   0451 21 2D 00           1622 	ld	hl,#_PaddleBypos + 0
   0454 7E                 1623 	ld	a,(hl)
   0455 F8 03              1624 	lda	hl,3(sp)
   0457 9E                 1625 	sbc	a,(hl) ; 2
   0458 7B                 1626 	ld	a,e
   0459 9A                 1627 	sbc	a,d
   045A DA B0 04           1628 	jp	c,00113$
                           1629 ; genMinus
                           1630 ; AOP_HL for _PaddleBypos
   045D 21 2D 00           1631 	ld	hl,#_PaddleBypos + 0
   0460 7E                 1632 	ld	a,(hl)
   0461 C6 E8              1633 	add	a,#0xE8
   0463 4F                 1634 	ld	c,a
   0464 23                 1635 	inc	hl
   0465 7E                 1636 	ld	a,(hl)
   0466 CE FF              1637 	adc	a,#0xFF
   0468 47                 1638 	ld	b,a
                           1639 ; genCmpLt
                           1640 ; AOP_STK for _main_sloc0_1_0
   0469 F8 04              1641 	lda	hl,4(sp)
   046B 7E                 1642 	ld	a,(hl)
   046C EE 80              1643 	xor	a,#0x80
   046E 5F                 1644 	ld	e,a
   046F 78                 1645 	ld	a,b
   0470 EE 80              1646 	xor	a,#0x80
   0472 57                 1647 	ld	d,a
   0473 2B                 1648 	dec	hl
   0474 7E                 1649 	ld	a,(hl)
   0475 99                 1650 	sbc	a,c ; 2
   0476 7B                 1651 	ld	a,e
   0477 9A                 1652 	sbc	a,d
   0478 DA B0 04           1653 	jp	c,00113$
                           1654 ;	main.c 154
                           1655 ; genUminus
                           1656 ; AOP_HL for _Ballxvel
   047B AF                 1657 	xor	a,a
   047C 21 28 00           1658 	ld	hl,#_Ballxvel + 0
   047F 3E 00              1659 	ld	a,#0x00
   0481 9E                 1660 	sbc	a,(hl)
   0482 77                 1661 	ld	(hl),a
                           1662 ;	main.c 155
                           1663 ; genMinus
                           1664 ; AOP_HL for _Ballypos
                           1665 ; AOP_HL for _PaddleBypos
                           1666 ; AOP_STK for _main_sloc0_1_0
   0483 21 22 00           1667 	ld	hl,#_Ballypos + 0
   0486 5E                 1668 	ld	e,(hl)
   0487 23                 1669 	inc	hl
   0488 56                 1670 	ld	d,(hl)
   0489 21 2D 00           1671 	ld	hl,#_PaddleBypos + 0
   048C 2A                 1672 	ld	a,(hl+)
   048D 66                 1673 	ld	h,(hl)
   048E 6F                 1674 	ld	l,a
   048F 7B                 1675 	ld	a,e
   0490 95                 1676 	sub	a,l
   0491 5F                 1677 	ld	e,a
   0492 7A                 1678 	ld	a,d
   0493 9C                 1679 	sbc	a,h
   0494 F8 04              1680 	lda	hl,4(sp)
   0496 77                 1681 	ld	(hl),a
   0497 2B                 1682 	dec	hl
   0498 73                 1683 	ld	(hl),e
                           1684 ; genCast
                           1685 ; AOP_HL for _Ballyvel
   0499 21 29 00           1686 	ld	hl,#_Ballyvel + 0
   049C 4E                 1687 	ld	c,(hl)
   049D 7E                 1688 	ld	a,(hl)
                           1689 ; genCast: sign extend untested.
   049E 17                 1690 	rla	
   049F 9F                 1691 	sbc	a,a
   04A0 47                 1692 	ld	b,a
                           1693 ; genPlus
                           1694 ; AOP_STK for _main_sloc0_1_0
                           1695 ;	genPlusIncr failed
   04A1 F8 03              1696 	lda	hl,3(sp)
   04A3 2A                 1697 	ld	a,(hl+)
   04A4 66                 1698 	ld	h,(hl)
   04A5 6F                 1699 	ld	l,a
   04A6 09                 1700 	add	hl,bc
   04A7 4D                 1701 	ld	c,l
   04A8 44                 1702 	ld	b,h
                           1703 ; genCast
                           1704 ; AOP_HL for _Ballyvel
   04A9 21 29 00           1705 	ld	hl,#_Ballyvel + 0
   04AC 71                 1706 	ld	(hl),c
                           1707 ; genGoto
   04AD C3 67 05           1708 	jp	00114$
                           1709 ; genLabel
   04B0                    1710 00113$:
                           1711 ;	main.c 157
                           1712 ; genCmpLt
                           1713 ; AOP_HL for _Ballxvel
   04B0 21 28 00           1714 	ld	hl,#_Ballxvel + 0
   04B3 7E                 1715 	ld	a,(hl)
   04B4 EE 80              1716 	xor	a,#0x80
   04B6 FE 80              1717 	cp	#0x00^0x80
   04B8 D2 67 05           1718 	jp	nc,00114$
                           1719 ; genMinus
                           1720 ; AOP_HL for _Ballxpos
                           1721 ; AOP_STK for _main_sloc0_1_0
   04BB 21 20 00           1722 	ld	hl,#_Ballxpos + 0
   04BE 5E                 1723 	ld	e,(hl)
   04BF 23                 1724 	inc	hl
   04C0 56                 1725 	ld	d,(hl)
   04C1 21 08 00           1726 	ld	hl,#0x0008
   04C4 7B                 1727 	ld	a,e
   04C5 95                 1728 	sub	a,l
   04C6 5F                 1729 	ld	e,a
   04C7 7A                 1730 	ld	a,d
   04C8 9C                 1731 	sbc	a,h
   04C9 F8 04              1732 	lda	hl,4(sp)
   04CB 77                 1733 	ld	(hl),a
   04CC 2B                 1734 	dec	hl
   04CD 73                 1735 	ld	(hl),e
                           1736 ; genMinus
                           1737 ; AOP_HL for _DistinceFromWall
   04CE 21 30 00           1738 	ld	hl,#_DistinceFromWall + 0
   04D1 7E                 1739 	ld	a,(hl)
   04D2 C6 FC              1740 	add	a,#0xFC
   04D4 4F                 1741 	ld	c,a
                           1742 ; genCast
                           1743 ; Removed redundent load
   04D5 79                 1744 	ld	a,c
                           1745 ; genCast: sign extend untested.
   04D6 17                 1746 	rla	
   04D7 9F                 1747 	sbc	a,a
   04D8 47                 1748 	ld	b,a
                           1749 ; genCmpGt
                           1750 ; AOP_STK for _main_sloc0_1_0
   04D9 78                 1751 	ld	a,b
   04DA EE 80              1752 	xor	a,#0x80
   04DC 5F                 1753 	ld	e,a
   04DD F8 04              1754 	lda	hl,4(sp)
   04DF 7E                 1755 	ld	a,(hl)
   04E0 EE 80              1756 	xor	a,#0x80
   04E2 57                 1757 	ld	d,a
   04E3 79                 1758 	ld	a,c
   04E4 2B                 1759 	dec	hl
   04E5 9E                 1760 	sbc	a,(hl) ; 2
   04E6 7B                 1761 	ld	a,e
   04E7 9A                 1762 	sbc	a,d
   04E8 DA 67 05           1763 	jp	c,00114$
                           1764 ; genMinus
                           1765 ; AOP_HL for _Ballypos
                           1766 ; AOP_STK for _main_sloc0_1_0
   04EB 21 22 00           1767 	ld	hl,#_Ballypos + 0
   04EE 5E                 1768 	ld	e,(hl)
   04EF 23                 1769 	inc	hl
   04F0 56                 1770 	ld	d,(hl)
   04F1 21 0D 00           1771 	ld	hl,#0x000D
   04F4 7B                 1772 	ld	a,e
   04F5 95                 1773 	sub	a,l
   04F6 5F                 1774 	ld	e,a
   04F7 7A                 1775 	ld	a,d
   04F8 9C                 1776 	sbc	a,h
   04F9 F8 04              1777 	lda	hl,4(sp)
   04FB 77                 1778 	ld	(hl),a
   04FC 2B                 1779 	dec	hl
   04FD 73                 1780 	ld	(hl),e
                           1781 ; genCmpGt
                           1782 ; AOP_STK for _main_sloc0_1_0
                           1783 ; AOP_HL for _PaddleAypos
   04FE 21 2B 00           1784 	ld	hl,#_PaddleAypos + 0 + 1
   0501 7E                 1785 	ld	a,(hl)
   0502 EE 80              1786 	xor	a,#0x80
   0504 5F                 1787 	ld	e,a
   0505 F8 04              1788 	lda	hl,4(sp)
   0507 7E                 1789 	ld	a,(hl)
   0508 EE 80              1790 	xor	a,#0x80
   050A 57                 1791 	ld	d,a
   050B 21 2A 00           1792 	ld	hl,#_PaddleAypos + 0
   050E 7E                 1793 	ld	a,(hl)
   050F F8 03              1794 	lda	hl,3(sp)
   0511 9E                 1795 	sbc	a,(hl) ; 2
   0512 7B                 1796 	ld	a,e
   0513 9A                 1797 	sbc	a,d
   0514 DA 67 05           1798 	jp	c,00114$
                           1799 ; genMinus
                           1800 ; AOP_HL for _PaddleAypos
   0517 21 2A 00           1801 	ld	hl,#_PaddleAypos + 0
   051A 7E                 1802 	ld	a,(hl)
   051B C6 E8              1803 	add	a,#0xE8
   051D 4F                 1804 	ld	c,a
   051E 23                 1805 	inc	hl
   051F 7E                 1806 	ld	a,(hl)
   0520 CE FF              1807 	adc	a,#0xFF
   0522 47                 1808 	ld	b,a
                           1809 ; genCmpLt
                           1810 ; AOP_STK for _main_sloc0_1_0
   0523 F8 04              1811 	lda	hl,4(sp)
   0525 7E                 1812 	ld	a,(hl)
   0526 EE 80              1813 	xor	a,#0x80
   0528 5F                 1814 	ld	e,a
   0529 78                 1815 	ld	a,b
   052A EE 80              1816 	xor	a,#0x80
   052C 57                 1817 	ld	d,a
   052D 2B                 1818 	dec	hl
   052E 7E                 1819 	ld	a,(hl)
   052F 99                 1820 	sbc	a,c ; 2
   0530 7B                 1821 	ld	a,e
   0531 9A                 1822 	sbc	a,d
   0532 DA 67 05           1823 	jp	c,00114$
                           1824 ;	main.c 158
                           1825 ; genUminus
                           1826 ; AOP_HL for _Ballxvel
   0535 AF                 1827 	xor	a,a
   0536 21 28 00           1828 	ld	hl,#_Ballxvel + 0
   0539 3E 00              1829 	ld	a,#0x00
   053B 9E                 1830 	sbc	a,(hl)
   053C 77                 1831 	ld	(hl),a
                           1832 ;	main.c 159
                           1833 ; genMinus
                           1834 ; AOP_HL for _Ballypos
                           1835 ; AOP_HL for _PaddleBypos
                           1836 ; AOP_STK for _main_sloc0_1_0
   053D 21 22 00           1837 	ld	hl,#_Ballypos + 0
   0540 5E                 1838 	ld	e,(hl)
   0541 23                 1839 	inc	hl
   0542 56                 1840 	ld	d,(hl)
   0543 21 2D 00           1841 	ld	hl,#_PaddleBypos + 0
   0546 2A                 1842 	ld	a,(hl+)
   0547 66                 1843 	ld	h,(hl)
   0548 6F                 1844 	ld	l,a
   0549 7B                 1845 	ld	a,e
   054A 95                 1846 	sub	a,l
   054B 5F                 1847 	ld	e,a
   054C 7A                 1848 	ld	a,d
   054D 9C                 1849 	sbc	a,h
   054E F8 04              1850 	lda	hl,4(sp)
   0550 77                 1851 	ld	(hl),a
   0551 2B                 1852 	dec	hl
   0552 73                 1853 	ld	(hl),e
                           1854 ; genCast
                           1855 ; AOP_HL for _Ballyvel
   0553 21 29 00           1856 	ld	hl,#_Ballyvel + 0
   0556 4E                 1857 	ld	c,(hl)
   0557 7E                 1858 	ld	a,(hl)
                           1859 ; genCast: sign extend untested.
   0558 17                 1860 	rla	
   0559 9F                 1861 	sbc	a,a
   055A 47                 1862 	ld	b,a
                           1863 ; genPlus
                           1864 ; AOP_STK for _main_sloc0_1_0
                           1865 ;	genPlusIncr failed
   055B F8 03              1866 	lda	hl,3(sp)
   055D 2A                 1867 	ld	a,(hl+)
   055E 66                 1868 	ld	h,(hl)
   055F 6F                 1869 	ld	l,a
   0560 09                 1870 	add	hl,bc
   0561 4D                 1871 	ld	c,l
   0562 44                 1872 	ld	b,h
                           1873 ; genCast
                           1874 ; AOP_HL for _Ballyvel
   0563 21 29 00           1875 	ld	hl,#_Ballyvel + 0
   0566 71                 1876 	ld	(hl),c
                           1877 ; genLabel
   0567                    1878 00114$:
                           1879 ;	main.c 162
                           1880 ; genCmpEq
                           1881 ; AOP_HL for _Ballyvel
   0567 21 29 00           1882 	ld	hl,#_Ballyvel + 0
   056A 7E                 1883 	ld	a,(hl)
   056B B7                 1884 	or	a,a
   056C C2 71 05           1885 	jp	nz,00192$
   056F 18 03              1886 	jr	00193$
   0571                    1887 00192$:
   0571 C3 78 05           1888 	jp	00119$
   0574                    1889 00193$:
                           1890 ;	main.c 163
                           1891 ; genPlus
                           1892 ; AOP_HL for _Ballyvel
                           1893 ; genPlusIncr
   0574 21 29 00           1894 	ld	hl,#_Ballyvel + 0
   0577 34                 1895 	inc	(hl)
                           1896 ; genLabel
   0578                    1897 00119$:
                           1898 ;	main.c 165
                           1899 ; genCmpGt
                           1900 ; AOP_HL for _Ballyvel
   0578 1E 85              1901 	ld	e,#0x85
   057A 21 29 00           1902 	ld	hl,#_Ballyvel + 0
   057D 7E                 1903 	ld	a,(hl)
   057E EE 80              1904 	xor	a,#0x80
   0580 57                 1905 	ld	d,a
   0581 7B                 1906 	ld	a,e
   0582 9A                 1907 	sbc	a,d
   0583 D2 8B 05           1908 	jp	nc,00123$
                           1909 ;	main.c 166
                           1910 ; genAssign
                           1911 ; AOP_HL for _Ballyvel
   0586 36 05              1912 	ld	(hl),#0x05
                           1913 ; genGoto
   0588 C3 98 05           1914 	jp	00124$
                           1915 ; genLabel
   058B                    1916 00123$:
                           1917 ;	main.c 167
                           1918 ; genCmpLt
                           1919 ; AOP_HL for _Ballyvel
   058B 21 29 00           1920 	ld	hl,#_Ballyvel + 0
   058E 7E                 1921 	ld	a,(hl)
   058F EE 80              1922 	xor	a,#0x80
   0591 FE 7B              1923 	cp	#0xFB^0x80
   0593 D2 98 05           1924 	jp	nc,00124$
                           1925 ;	main.c 168
                           1926 ; genAssign
                           1927 ; AOP_HL for _Ballyvel
   0596 36 FB              1928 	ld	(hl),#0xFB
                           1929 ; genLabel
   0598                    1930 00124$:
                           1931 ;	main.c 170
                           1932 ; genCmpGt
                           1933 ; AOP_HL for _Ballxvel
   0598 1E 85              1934 	ld	e,#0x85
   059A 21 28 00           1935 	ld	hl,#_Ballxvel + 0
   059D 7E                 1936 	ld	a,(hl)
   059E EE 80              1937 	xor	a,#0x80
   05A0 57                 1938 	ld	d,a
   05A1 7B                 1939 	ld	a,e
   05A2 9A                 1940 	sbc	a,d
   05A3 D2 AB 05           1941 	jp	nc,00128$
                           1942 ;	main.c 171
                           1943 ; genAssign
                           1944 ; AOP_HL for _Ballxvel
   05A6 36 05              1945 	ld	(hl),#0x05
                           1946 ; genGoto
   05A8 C3 B8 05           1947 	jp	00129$
                           1948 ; genLabel
   05AB                    1949 00128$:
                           1950 ;	main.c 172
                           1951 ; genCmpLt
                           1952 ; AOP_HL for _Ballxvel
   05AB 21 28 00           1953 	ld	hl,#_Ballxvel + 0
   05AE 7E                 1954 	ld	a,(hl)
   05AF EE 80              1955 	xor	a,#0x80
   05B1 FE 7B              1956 	cp	#0xFB^0x80
   05B3 D2 B8 05           1957 	jp	nc,00129$
                           1958 ;	main.c 173
                           1959 ; genAssign
                           1960 ; AOP_HL for _Ballxvel
   05B6 36 FB              1961 	ld	(hl),#0xFB
                           1962 ; genLabel
   05B8                    1963 00129$:
                           1964 ;	main.c 175
                           1965 ; genCmpGt
                           1966 ; AOP_HL for _PaddleAyvel
   05B8 1E 80              1967 	ld	e,#0x80
   05BA 21 2C 00           1968 	ld	hl,#_PaddleAyvel + 0
   05BD 7E                 1969 	ld	a,(hl)
   05BE EE 80              1970 	xor	a,#0x80
   05C0 57                 1971 	ld	d,a
   05C1 7B                 1972 	ld	a,e
   05C2 9A                 1973 	sbc	a,d
   05C3 D2 E5 05           1974 	jp	nc,00134$
                           1975 ; genAssign
                           1976 ; AOP_HL for _height
   05C6 21 16 01           1977 	ld	hl,#_height + 0
   05C9 4E                 1978 	ld	c,(hl)
   05CA 23                 1979 	inc	hl
   05CB 46                 1980 	ld	b,(hl)
                           1981 ; genCmpGt
                           1982 ; AOP_HL for _PaddleAypos
   05CC 78                 1983 	ld	a,b
   05CD EE 80              1984 	xor	a,#0x80
   05CF 5F                 1985 	ld	e,a
   05D0 21 2B 00           1986 	ld	hl,#_PaddleAypos + 0 + 1
   05D3 7E                 1987 	ld	a,(hl)
   05D4 EE 80              1988 	xor	a,#0x80
   05D6 57                 1989 	ld	d,a
   05D7 79                 1990 	ld	a,c
   05D8 2B                 1991 	dec	hl
   05D9 9E                 1992 	sbc	a,(hl) ; 2
   05DA 7B                 1993 	ld	a,e
   05DB 9A                 1994 	sbc	a,d
   05DC D2 E5 05           1995 	jp	nc,00134$
                           1996 ;	main.c 176
                           1997 ; genAssign
                           1998 ; AOP_HL for _PaddleAypos
   05DF 71                 1999 	ld	(hl),c
   05E0 23                 2000 	inc	hl
   05E1 70                 2001 	ld	(hl),b
                           2002 ; genGoto
   05E2 C3 31 06           2003 	jp	00135$
                           2004 ; genLabel
   05E5                    2005 00134$:
                           2006 ;	main.c 177
                           2007 ; genCmpLt
                           2008 ; AOP_HL for _PaddleAyvel
   05E5 21 2C 00           2009 	ld	hl,#_PaddleAyvel + 0
   05E8 7E                 2010 	ld	a,(hl)
   05E9 EE 80              2011 	xor	a,#0x80
   05EB FE 80              2012 	cp	#0x00^0x80
   05ED D2 31 06           2013 	jp	nc,00135$
                           2014 ; genMinus
                           2015 ; AOP_HL for _PaddleAypos
                           2016 ; AOP_STK for _main_sloc0_1_0
   05F0 21 2A 00           2017 	ld	hl,#_PaddleAypos + 0
   05F3 5E                 2018 	ld	e,(hl)
   05F4 23                 2019 	inc	hl
   05F5 56                 2020 	ld	d,(hl)
   05F6 21 08 00           2021 	ld	hl,#0x0008
   05F9 7B                 2022 	ld	a,e
   05FA 95                 2023 	sub	a,l
   05FB 5F                 2024 	ld	e,a
   05FC 7A                 2025 	ld	a,d
   05FD 9C                 2026 	sbc	a,h
   05FE F8 04              2027 	lda	hl,4(sp)
   0600 77                 2028 	ld	(hl),a
   0601 2B                 2029 	dec	hl
   0602 73                 2030 	ld	(hl),e
                           2031 ; genAssign
                           2032 ; AOP_HL for _yoff
   0603 21 19 01           2033 	ld	hl,#_yoff + 0
   0606 4E                 2034 	ld	c,(hl)
                           2035 ; genCast
                           2036 ; AOP_STK for _main_sloc1_1_0
   0607 F8 01              2037 	lda	hl,1(sp)
   0609 71                 2038 	ld	(hl),c
   060A 79                 2039 	ld	a,c
                           2040 ; genCast: sign extend untested.
   060B 17                 2041 	rla	
   060C 9F                 2042 	sbc	a,a
   060D 23                 2043 	inc	hl
                           2044 ; genCmpLt
                           2045 ; AOP_STK for _main_sloc0_1_0
                           2046 ; AOP_STK for _main_sloc1_1_0
   060E 22                 2047 	ld	(hl+),a
   060F 23                 2048 	inc	hl
   0610 7E                 2049 	ld	a,(hl)
   0611 EE 80              2050 	xor	a,#0x80
   0613 5F                 2051 	ld	e,a
   0614 2B                 2052 	dec	hl
   0615 2B                 2053 	dec	hl
   0616 7E                 2054 	ld	a,(hl)
   0617 EE 80              2055 	xor	a,#0x80
   0619 57                 2056 	ld	d,a
   061A 23                 2057 	inc	hl
   061B 7E                 2058 	ld	a,(hl)
   061C 2B                 2059 	dec	hl
   061D 2B                 2060 	dec	hl
   061E 9E                 2061 	sbc	a,(hl) ; 2
   061F 7B                 2062 	ld	a,e
   0620 9A                 2063 	sbc	a,d
   0621 D2 31 06           2064 	jp	nc,00135$
                           2065 ;	main.c 178
                           2066 ; genPlus
                           2067 ; genPlusIncr
                           2068 ;	genPlusIncr failed
   0624 79                 2069 	ld	a,c
   0625 C6 08              2070 	add	a,#0x08
   0627 4F                 2071 	ld	c,a
                           2072 ; genCast
                           2073 ; AOP_HL for _PaddleAypos
   0628 21 2A 00           2074 	ld	hl,#_PaddleAypos + 0
   062B 71                 2075 	ld	(hl),c
   062C 79                 2076 	ld	a,c
                           2077 ; genCast: sign extend untested.
   062D 17                 2078 	rla	
   062E 9F                 2079 	sbc	a,a
   062F 23                 2080 	inc	hl
   0630 77                 2081 	ld	(hl),a
                           2082 ; genLabel
   0631                    2083 00135$:
                           2084 ;	main.c 180
                           2085 ; genCmpGt
                           2086 ; AOP_HL for _PaddleByvel
   0631 1E 80              2087 	ld	e,#0x80
   0633 21 2F 00           2088 	ld	hl,#_PaddleByvel + 0
   0636 7E                 2089 	ld	a,(hl)
   0637 EE 80              2090 	xor	a,#0x80
   0639 57                 2091 	ld	d,a
   063A 7B                 2092 	ld	a,e
   063B 9A                 2093 	sbc	a,d
   063C D2 5E 06           2094 	jp	nc,00141$
                           2095 ; genAssign
                           2096 ; AOP_HL for _height
   063F 21 16 01           2097 	ld	hl,#_height + 0
   0642 4E                 2098 	ld	c,(hl)
   0643 23                 2099 	inc	hl
   0644 46                 2100 	ld	b,(hl)
                           2101 ; genCmpGt
                           2102 ; AOP_HL for _PaddleBypos
   0645 78                 2103 	ld	a,b
   0646 EE 80              2104 	xor	a,#0x80
   0648 5F                 2105 	ld	e,a
   0649 21 2E 00           2106 	ld	hl,#_PaddleBypos + 0 + 1
   064C 7E                 2107 	ld	a,(hl)
   064D EE 80              2108 	xor	a,#0x80
   064F 57                 2109 	ld	d,a
   0650 79                 2110 	ld	a,c
   0651 2B                 2111 	dec	hl
   0652 9E                 2112 	sbc	a,(hl) ; 2
   0653 7B                 2113 	ld	a,e
   0654 9A                 2114 	sbc	a,d
   0655 D2 5E 06           2115 	jp	nc,00141$
                           2116 ;	main.c 181
                           2117 ; genAssign
                           2118 ; AOP_HL for _PaddleBypos
   0658 71                 2119 	ld	(hl),c
   0659 23                 2120 	inc	hl
   065A 70                 2121 	ld	(hl),b
                           2122 ; genGoto
   065B C3 AB 06           2123 	jp	00142$
                           2124 ; genLabel
   065E                    2125 00141$:
                           2126 ;	main.c 182
                           2127 ; genCmpLt
                           2128 ; AOP_HL for _PaddleByvel
   065E 21 2F 00           2129 	ld	hl,#_PaddleByvel + 0
   0661 7E                 2130 	ld	a,(hl)
   0662 EE 80              2131 	xor	a,#0x80
   0664 FE 80              2132 	cp	#0x00^0x80
   0666 D2 AB 06           2133 	jp	nc,00142$
                           2134 ; genMinus
                           2135 ; AOP_HL for _PaddleBypos
                           2136 ; AOP_STK for _main_sloc1_1_0
   0669 21 2D 00           2137 	ld	hl,#_PaddleBypos + 0
   066C 5E                 2138 	ld	e,(hl)
   066D 23                 2139 	inc	hl
   066E 56                 2140 	ld	d,(hl)
   066F 21 08 00           2141 	ld	hl,#0x0008
   0672 7B                 2142 	ld	a,e
   0673 95                 2143 	sub	a,l
   0674 5F                 2144 	ld	e,a
   0675 7A                 2145 	ld	a,d
   0676 9C                 2146 	sbc	a,h
   0677 F8 02              2147 	lda	hl,2(sp)
   0679 77                 2148 	ld	(hl),a
   067A 2B                 2149 	dec	hl
   067B 73                 2150 	ld	(hl),e
                           2151 ; genAssign
                           2152 ; AOP_HL for _yoff
   067C 21 19 01           2153 	ld	hl,#_yoff + 0
   067F 4E                 2154 	ld	c,(hl)
                           2155 ; genCast
                           2156 ; AOP_STK for _main_sloc0_1_0
   0680 F8 03              2157 	lda	hl,3(sp)
   0682 71                 2158 	ld	(hl),c
   0683 79                 2159 	ld	a,c
                           2160 ; genCast: sign extend untested.
   0684 17                 2161 	rla	
   0685 9F                 2162 	sbc	a,a
   0686 23                 2163 	inc	hl
   0687 77                 2164 	ld	(hl),a
                           2165 ; genCmpLt
                           2166 ; AOP_STK for _main_sloc1_1_0
                           2167 ; AOP_STK for _main_sloc0_1_0
   0688 2B                 2168 	dec	hl
   0689 2B                 2169 	dec	hl
   068A 7E                 2170 	ld	a,(hl)
   068B EE 80              2171 	xor	a,#0x80
   068D 5F                 2172 	ld	e,a
   068E 23                 2173 	inc	hl
   068F 23                 2174 	inc	hl
   0690 7E                 2175 	ld	a,(hl)
   0691 EE 80              2176 	xor	a,#0x80
   0693 57                 2177 	ld	d,a
   0694 F8 01              2178 	lda	hl,1(sp)
   0696 2A                 2179 	ld	a,(hl+)
   0697 23                 2180 	inc	hl
   0698 9E                 2181 	sbc	a,(hl) ; 2
   0699 7B                 2182 	ld	a,e
   069A 9A                 2183 	sbc	a,d
   069B D2 AB 06           2184 	jp	nc,00142$
                           2185 ;	main.c 183
                           2186 ; genPlus
                           2187 ; genPlusIncr
                           2188 ;	genPlusIncr failed
   069E 79                 2189 	ld	a,c
   069F C6 08              2190 	add	a,#0x08
   06A1 4F                 2191 	ld	c,a
                           2192 ; genCast
                           2193 ; AOP_HL for _PaddleBypos
   06A2 21 2D 00           2194 	ld	hl,#_PaddleBypos + 0
   06A5 71                 2195 	ld	(hl),c
   06A6 79                 2196 	ld	a,c
                           2197 ; genCast: sign extend untested.
   06A7 17                 2198 	rla	
   06A8 9F                 2199 	sbc	a,a
   06A9 23                 2200 	inc	hl
   06AA 77                 2201 	ld	(hl),a
                           2202 ; genLabel
   06AB                    2203 00142$:
                           2204 ;	main.c 194
                           2205 ; genCast
                           2206 ; AOP_HL for _Ballxvel
   06AB 21 28 00           2207 	ld	hl,#_Ballxvel + 0
   06AE 4E                 2208 	ld	c,(hl)
   06AF 7E                 2209 	ld	a,(hl)
                           2210 ; genCast: sign extend untested.
   06B0 17                 2211 	rla	
   06B1 9F                 2212 	sbc	a,a
   06B2 47                 2213 	ld	b,a
                           2214 ; genPlus
                           2215 ; AOP_HL for _Ballxpos
                           2216 ;	genPlusIncr failed
   06B3 21 20 00           2217 	ld	hl,#_Ballxpos + 0
   06B6 7E                 2218 	ld	a,(hl)
   06B7 81                 2219 	add	a,c
   06B8 22                 2220 	ld	(hl+),a
   06B9 7E                 2221 	ld	a,(hl)
   06BA 88                 2222 	adc	a,b
   06BB 77                 2223 	ld	(hl),a
                           2224 ;	main.c 195
                           2225 ; genCast
                           2226 ; AOP_HL for _Ballyvel
   06BC 21 29 00           2227 	ld	hl,#_Ballyvel + 0
   06BF 4E                 2228 	ld	c,(hl)
   06C0 7E                 2229 	ld	a,(hl)
                           2230 ; genCast: sign extend untested.
   06C1 17                 2231 	rla	
   06C2 9F                 2232 	sbc	a,a
   06C3 47                 2233 	ld	b,a
                           2234 ; genPlus
                           2235 ; AOP_HL for _Ballypos
                           2236 ;	genPlusIncr failed
   06C4 21 22 00           2237 	ld	hl,#_Ballypos + 0
   06C7 7E                 2238 	ld	a,(hl)
   06C8 81                 2239 	add	a,c
   06C9 22                 2240 	ld	(hl+),a
   06CA 7E                 2241 	ld	a,(hl)
   06CB 88                 2242 	adc	a,b
   06CC 77                 2243 	ld	(hl),a
                           2244 ;	main.c 197
                           2245 ; genCast
                           2246 ; AOP_HL for _PaddleAyvel
   06CD 21 2C 00           2247 	ld	hl,#_PaddleAyvel + 0
   06D0 4E                 2248 	ld	c,(hl)
   06D1 7E                 2249 	ld	a,(hl)
                           2250 ; genCast: sign extend untested.
   06D2 17                 2251 	rla	
   06D3 9F                 2252 	sbc	a,a
   06D4 47                 2253 	ld	b,a
                           2254 ; genPlus
                           2255 ; AOP_HL for _PaddleAypos
                           2256 ;	genPlusIncr failed
   06D5 21 2A 00           2257 	ld	hl,#_PaddleAypos + 0
   06D8 7E                 2258 	ld	a,(hl)
   06D9 81                 2259 	add	a,c
   06DA 22                 2260 	ld	(hl+),a
   06DB 7E                 2261 	ld	a,(hl)
   06DC 88                 2262 	adc	a,b
   06DD 77                 2263 	ld	(hl),a
                           2264 ;	main.c 198
                           2265 ; genCast
                           2266 ; AOP_HL for _PaddleByvel
   06DE 21 2F 00           2267 	ld	hl,#_PaddleByvel + 0
   06E1 4E                 2268 	ld	c,(hl)
   06E2 7E                 2269 	ld	a,(hl)
                           2270 ; genCast: sign extend untested.
   06E3 17                 2271 	rla	
   06E4 9F                 2272 	sbc	a,a
   06E5 47                 2273 	ld	b,a
                           2274 ; genPlus
                           2275 ; AOP_HL for _PaddleBypos
                           2276 ;	genPlusIncr failed
   06E6 21 2D 00           2277 	ld	hl,#_PaddleBypos + 0
   06E9 7E                 2278 	ld	a,(hl)
   06EA 81                 2279 	add	a,c
   06EB 22                 2280 	ld	(hl+),a
   06EC 7E                 2281 	ld	a,(hl)
   06ED 88                 2282 	adc	a,b
   06EE 77                 2283 	ld	(hl),a
                           2284 ; genGoto
   06EF C3 6B 07           2285 	jp	00154$
                           2286 ; genLabel
   06F2                    2287 00153$:
                           2288 ;	main.c 200
                           2289 ; genCmpEq
                           2290 ; AOP_HL for _PaddleAyvel
   06F2 21 2C 00           2291 	ld	hl,#_PaddleAyvel + 0
   06F5 7E                 2292 	ld	a,(hl)
   06F6 B7                 2293 	or	a,a
                           2294 ; Rule 5
   06F7 CA 6B 07           2295 	jp	z,00154$
   06FA                    2296 00194$:
                           2297 ;	main.c 201
                           2298 ; genAssign
                           2299 ; AOP_HL for _running
   06FA 21 31 00           2300 	ld	hl,#_running + 0
   06FD 36 01              2301 	ld	(hl),#0x01
                           2302 ;	main.c 203
                           2303 ; genLabel
   06FF                    2304 00144$:
                           2305 ; genCmpEq
                           2306 ; AOP_HL for _Ballxvel
                           2307 ; AOP_STK for _main_sloc0_1_0
   06FF 21 28 00           2308 	ld	hl,#_Ballxvel + 0
   0702 7E                 2309 	ld	a,(hl)
   0703 B7                 2310 	or	a,a
   0704 C2 0B 07           2311 	jp	nz,00195$
   0707 3E 01              2312 	ld	a,#0x01
   0709 18 01              2313 	jr	00196$
   070B                    2314 00195$:
   070B AF                 2315 	xor	a,a
   070C                    2316 00196$:
   070C F8 03              2317 	lda	hl,3(sp)
   070E 77                 2318 	ld	(hl),a
                           2319 ; genIfx
                           2320 ; AOP_STK for _main_sloc0_1_0
                           2321 ; Removed redundent or a,a
   070F AF                 2322 	xor	a,a
   0710 B6                 2323 	or	a,(hl)
   0711 CA 35 07           2324 	jp	z,00147$
                           2325 ;	main.c 204
                           2326 ; genCall
   0714 CD 00 00           2327 	call	_rand
                           2328 ; AOP_STK for _main_sloc1_1_0
   0717 F8 01              2329 	lda	hl,1(sp)
   0719 73                 2330 	ld	(hl),e
                           2331 ; genIpush
   071A 3E 0A              2332 	ld	a,#0x0A
   071C F5                 2333 	push	af
   071D 33                 2334 	inc	sp
                           2335 ; genIpush
                           2336 ; AOP_STK for _main_sloc1_1_0
   071E 7E                 2337 	ld	a,(hl)
   071F F5                 2338 	push	af
   0720 33                 2339 	inc	sp
                           2340 ; genCall
   0721 CD 00 00           2341 	call	__modschar
                           2342 ; AOP_STK for _main_sloc2_1_0
   0724 F8 02              2343 	lda	hl,2(sp)
   0726 73                 2344 	ld	(hl),e
   0727 E8 02              2345 	lda	sp,2(sp)
                           2346 ; genMinus
                           2347 ; AOP_STK for _main_sloc2_1_0
   0729 7E                 2348 	ld	a,(hl)
   072A C6 FB              2349 	add	a,#0xFB
   072C 4F                 2350 	ld	c,a
                           2351 ; genAssign
   072D 41                 2352 	ld	b,c
                           2353 ; genAssign
                           2354 ; AOP_HL for _Ballxvel
   072E 21 28 00           2355 	ld	hl,#_Ballxvel + 0
   0731 70                 2356 	ld	(hl),b
                           2357 ; genGoto
   0732 C3 FF 06           2358 	jp	00144$
                           2359 ;	main.c 207
                           2360 ; genLabel
   0735                    2361 00147$:
                           2362 ; genCmpEq
                           2363 ; AOP_HL for _Ballyvel
                           2364 ; AOP_STK for _main_sloc1_1_0
   0735 21 29 00           2365 	ld	hl,#_Ballyvel + 0
   0738 7E                 2366 	ld	a,(hl)
   0739 B7                 2367 	or	a,a
   073A C2 41 07           2368 	jp	nz,00197$
   073D 3E 01              2369 	ld	a,#0x01
   073F 18 01              2370 	jr	00198$
   0741                    2371 00197$:
   0741 AF                 2372 	xor	a,a
   0742                    2373 00198$:
   0742 F8 01              2374 	lda	hl,1(sp)
   0744 77                 2375 	ld	(hl),a
                           2376 ; genIfx
                           2377 ; AOP_STK for _main_sloc1_1_0
                           2378 ; Removed redundent or a,a
   0745 AF                 2379 	xor	a,a
   0746 B6                 2380 	or	a,(hl)
   0747 CA 6B 07           2381 	jp	z,00154$
                           2382 ;	main.c 208
                           2383 ; genCall
   074A CD 00 00           2384 	call	_rand
                           2385 ; AOP_STK for _main_sloc2_1_0
   074D F8 00              2386 	lda	hl,0(sp)
   074F 73                 2387 	ld	(hl),e
                           2388 ; genIpush
   0750 3E 0A              2389 	ld	a,#0x0A
   0752 F5                 2390 	push	af
   0753 33                 2391 	inc	sp
                           2392 ; genIpush
                           2393 ; AOP_STK for _main_sloc2_1_0
   0754 7E                 2394 	ld	a,(hl)
   0755 F5                 2395 	push	af
   0756 33                 2396 	inc	sp
                           2397 ; genCall
   0757 CD 00 00           2398 	call	__modschar
                           2399 ; AOP_STK for _main_sloc0_1_0
   075A F8 05              2400 	lda	hl,5(sp)
   075C 73                 2401 	ld	(hl),e
   075D E8 02              2402 	lda	sp,2(sp)
                           2403 ; genMinus
                           2404 ; AOP_STK for _main_sloc0_1_0
   075F 7E                 2405 	ld	a,(hl)
   0760 C6 FB              2406 	add	a,#0xFB
   0762 4F                 2407 	ld	c,a
                           2408 ; genAssign
   0763 41                 2409 	ld	b,c
                           2410 ; genAssign
                           2411 ; AOP_HL for _Ballyvel
   0764 21 29 00           2412 	ld	hl,#_Ballyvel + 0
   0767 70                 2413 	ld	(hl),b
                           2414 ; genGoto
   0768 C3 35 07           2415 	jp	00147$
                           2416 ; genLabel
   076B                    2417 00154$:
                           2418 ;	main.c 212
                           2419 ; genCall
   076B CD 00 00           2420 	call	_updateSpritePositions
                           2421 ;	main.c 214
                           2422 ; genIpush
   076E 21 14 00           2423 	ld	hl,#0x0014
   0771 E5                 2424 	push	hl
                           2425 ; genCall
   0772 CD 00 00           2426 	call	_delay
   0775 E8 02              2427 	lda	sp,2(sp)
                           2428 ; genGoto
   0777 C3 5B 03           2429 	jp	00156$
                           2430 ; genLabel
   077A                    2431 00158$:
                           2432 ; genEndFunction
   077A E8 05              2433 	lda	sp,5(sp)
   077C C1                 2434 	pop	bc
   077D C9                 2435 	ret
   077E                    2436 ___main_end:
                           2437 	.area _CODE
ASxxxx Assembler V01.75  (GameBoy Z80-like CPU), page 1.

Symbol Table

  0 _AIMove                            02A4 GR
    _BCPD_REG                          **** GX
    _BCPS_REG                          **** GX
    _BGP_REG                           **** GX
  1 _Ball                              0000 GR
  1 _Ballxpos                          0020 GR
  1 _Ballxvel                          0028 GR
  1 _Ballypos                          0022 GR
  1 _Ballyvel                          0029 GR
    _DIV_REG                           **** GX
    _DMA_REG                           **** GX
  1 _DistinceFromWall                  0030 GR
  1 _DownPressed                       0033 GR
    _HDMA1_REG                         **** GX
    _HDMA2_REG                         **** GX
    _HDMA3_REG                         **** GX
    _HDMA4_REG                         **** GX
    _HDMA5_REG                         **** GX
    _IE_REG                            **** GX
    _IF_REG                            **** GX
    _KEY1_REG                          **** GX
    _LCDC_REG                          **** GX
    _LYC_REG                           **** GX
    _LY_REG                            **** GX
    _NR10_REG                          **** GX
    _NR11_REG                          **** GX
    _NR12_REG                          **** GX
    _NR13_REG                          **** GX
    _NR14_REG                          **** GX
    _NR21_REG                          **** GX
    _NR22_REG                          **** GX
    _NR23_REG                          **** GX
    _NR24_REG                          **** GX
    _NR30_REG                          **** GX
    _NR31_REG                          **** GX
    _NR32_REG                          **** GX
    _NR33_REG                          **** GX
    _NR34_REG                          **** GX
    _NR41_REG                          **** GX
    _NR42_REG                          **** GX
    _NR43_REG                          **** GX
    _NR44_REG                          **** GX
    _NR50_REG                          **** GX
    _NR51_REG                          **** GX
    _NR52_REG                          **** GX
    _OBP0_REG                          **** GX
    _OBP1_REG                          **** GX
    _OCPD_REG                          **** GX
    _OCPS_REG                          **** GX
    _P1_REG                            **** GX
  1 _Paddle                            0010 GR
  1 _PaddleAypos                       002A GR
  1 _PaddleAyvel                       002C GR
  1 _PaddleBypos                       002D GR
  1 _PaddleByvel                       002F GR
  0 _PlayerMove                        02F1 GR
  1 _PrevBallx                         0024 GR
  1 _PrevBally                         0026 GR
    _RP_REG                            **** GX
    _SB_REG                            **** GX
    _SCX_REG                           **** GX
    _SCY_REG                           **** GX
    _SC_REG                            **** GX
    _STAT_REG                          **** GX
    _SVBK_REG                          **** GX
    _TAC_REG                           **** GX
    _TIMA_REG                          **** GX
    _TMA_REG                           **** GX
  1 _UpPressed                         0032 GR
    _VBK_REG                           **** GX
    _WX_REG                            **** GX
    _WY_REG                            **** GX
  0 ___AIMove_end                      02F1 R
  0 ___AIMove_start                    02A4 R
  0 ___PlayerMove_end                  0349 R
  0 ___PlayerMove_start                02F1 R
  0 ___initSprites_end                 021C R
  0 ___initSprites_start               011A R
  0 ___main_end                        077E R
  0 ___main_start                      0349 R
  0 ___score_end                       02A4 R
  0 ___score_start                     021C R
  0 ___updateSpritePositions_end       010C R
  0 ___updateSpritePositions_start     0000 R
  0 __ballTileCount                    010C GR
  0 __ballTileIndex                    010E GR
    __cpu                              **** GX
    __io_in                            **** GX
    __io_out                           **** GX
    __io_status                        **** GX
    __modschar                         **** GX
    __mulsint                          **** GX
  0 __paddleTileCount                  0110 GR
  0 __paddleTileIndex                  0112 GR
    _delay                             **** GX
  0 _height                            0116 GR
  0 _initSprites                       011A GR
    _joypad                            **** GX
  0 _main                              0349 GR
    _move_sprite                       **** GX
    _rand                              **** GX
  1 _running                           0031 GR
  0 _score                             021C GR
    _set_sprite_data                   **** GX
    _set_sprite_tile                   **** GX
    _sys_time                          **** GX
  0 _updateSpritePositions             0000 GR
  0 _width                             0114 GR
  0 _xoff                              0118 GR
  0 _yoff                              0119 GR
    init                               **** GX
    srand                              **** GX

ASxxxx Assembler V01.75  (GameBoy Z80-like CPU), page 2.

Area Table

   0 _CODE                              size  77E   flags 0
   1 _DATA                              size   34   flags 0
   2 _OVERLAY                           size    0   flags 0
   3 _ISEG                              size    0   flags 0
   4 _BSEG                              size    0   flags 0
   5 _XSEG                              size    0   flags 0
   6 _GSINIT                            size  118   flags 0
   7 _GSFINAL                           size    0   flags 0
   8 _HOME                              size    0   flags 0
